
build/auipc:     file format elf64-littleriscv


Disassembly of section .text:

0000000052010000 <_start>:
    52010000:	1161                	addi	sp,sp,-8
    52010002:	e006                	sd	ra,0(sp)
    52010004:	520102b7          	lui	t0,0x52010
    52010008:	33a28293          	addi	t0,t0,826 # 5201033a <__DATA_BEGIN__>
    5201000c:	52010337          	lui	t1,0x52010
    52010010:	34030313          	addi	t1,t1,832 # 52010340 <__BSS_END__>
    52010014:	0062d763          	bge	t0,t1,52010022 <cleared>

0000000052010018 <clear_bss>:
    52010018:	0002a023          	sw	zero,0(t0)
    5201001c:	0291                	addi	t0,t0,4
    5201001e:	fe62cde3          	blt	t0,t1,52010018 <clear_bss>

0000000052010022 <cleared>:
    52010022:	2c6000ef          	jal	ra,520102e8 <main>
    52010026:	6082                	ld	ra,0(sp)
    52010028:	0121                	addi	sp,sp,8
    5201002a:	8082                	ret
	...

000000005201002e <call_jmptab>:
    5201002e:	7139                	addi	sp,sp,-64
    52010030:	fc06                	sd	ra,56(sp)
    52010032:	f822                	sd	s0,48(sp)
    52010034:	0080                	addi	s0,sp,64
    52010036:	fca43c23          	sd	a0,-40(s0)
    5201003a:	fcb43823          	sd	a1,-48(s0)
    5201003e:	fcc43423          	sd	a2,-56(s0)
    52010042:	fcd43023          	sd	a3,-64(s0)
    52010046:	fd843703          	ld	a4,-40(s0)
    5201004a:	0a4007b7          	lui	a5,0xa400
    5201004e:	1781                	addi	a5,a5,-32
    52010050:	97ba                	add	a5,a5,a4
    52010052:	078e                	slli	a5,a5,0x3
    52010054:	639c                	ld	a5,0(a5)
    52010056:	fef43423          	sd	a5,-24(s0)
    5201005a:	fe843783          	ld	a5,-24(s0)
    5201005e:	fef43023          	sd	a5,-32(s0)
    52010062:	fe043783          	ld	a5,-32(s0)
    52010066:	fc043603          	ld	a2,-64(s0)
    5201006a:	fc843583          	ld	a1,-56(s0)
    5201006e:	fd043503          	ld	a0,-48(s0)
    52010072:	9782                	jalr	a5
    52010074:	87aa                	mv	a5,a0
    52010076:	853e                	mv	a0,a5
    52010078:	70e2                	ld	ra,56(sp)
    5201007a:	7442                	ld	s0,48(sp)
    5201007c:	6121                	addi	sp,sp,64
    5201007e:	8082                	ret

0000000052010080 <bios_putstr>:
    52010080:	1101                	addi	sp,sp,-32
    52010082:	ec06                	sd	ra,24(sp)
    52010084:	e822                	sd	s0,16(sp)
    52010086:	1000                	addi	s0,sp,32
    52010088:	fea43423          	sd	a0,-24(s0)
    5201008c:	fe843783          	ld	a5,-24(s0)
    52010090:	4681                	li	a3,0
    52010092:	4601                	li	a2,0
    52010094:	85be                	mv	a1,a5
    52010096:	4501                	li	a0,0
    52010098:	f97ff0ef          	jal	ra,5201002e <call_jmptab>
    5201009c:	0001                	nop
    5201009e:	60e2                	ld	ra,24(sp)
    520100a0:	6442                	ld	s0,16(sp)
    520100a2:	6105                	addi	sp,sp,32
    520100a4:	8082                	ret

00000000520100a6 <simple_itoa>:
    520100a6:	715d                	addi	sp,sp,-80
    520100a8:	e4a2                	sd	s0,72(sp)
    520100aa:	0880                	addi	s0,sp,80
    520100ac:	fca43423          	sd	a0,-56(s0)
    520100b0:	fae43823          	sd	a4,-80(s0)
    520100b4:	873e                	mv	a4,a5
    520100b6:	87ae                	mv	a5,a1
    520100b8:	fcf42223          	sw	a5,-60(s0)
    520100bc:	87b2                	mv	a5,a2
    520100be:	fcf42023          	sw	a5,-64(s0)
    520100c2:	87b6                	mv	a5,a3
    520100c4:	faf42e23          	sw	a5,-68(s0)
    520100c8:	87ba                	mv	a5,a4
    520100ca:	faf42c23          	sw	a5,-72(s0)
    520100ce:	fb043783          	ld	a5,-80(s0)
    520100d2:	fef43423          	sd	a5,-24(s0)
    520100d6:	fe042223          	sw	zero,-28(s0)
    520100da:	fc442783          	lw	a5,-60(s0)
    520100de:	0007871b          	sext.w	a4,a5
    520100e2:	47c1                	li	a5,16
    520100e4:	00e7f463          	bgeu	a5,a4,520100ec <simple_itoa+0x46>
    520100e8:	4781                	li	a5,0
    520100ea:	a26d                	j	52010294 <simple_itoa+0x1ee>
    520100ec:	fc843783          	ld	a5,-56(s0)
    520100f0:	0007df63          	bgez	a5,5201010e <simple_itoa+0x68>
    520100f4:	fbc42783          	lw	a5,-68(s0)
    520100f8:	2781                	sext.w	a5,a5
    520100fa:	eb91                	bnez	a5,5201010e <simple_itoa+0x68>
    520100fc:	4785                	li	a5,1
    520100fe:	fef42223          	sw	a5,-28(s0)
    52010102:	fc843783          	ld	a5,-56(s0)
    52010106:	40f007b3          	neg	a5,a5
    5201010a:	fcf43423          	sd	a5,-56(s0)
    5201010e:	fc446783          	lwu	a5,-60(s0)
    52010112:	fc843703          	ld	a4,-56(s0)
    52010116:	02f767b3          	rem	a5,a4,a5
    5201011a:	fcf42e23          	sw	a5,-36(s0)
    5201011e:	fdc42783          	lw	a5,-36(s0)
    52010122:	0007871b          	sext.w	a4,a5
    52010126:	47a5                	li	a5,9
    52010128:	00e7cb63          	blt	a5,a4,5201013e <simple_itoa+0x98>
    5201012c:	fdc42783          	lw	a5,-36(s0)
    52010130:	0ff7f793          	zext.b	a5,a5
    52010134:	0307879b          	addiw	a5,a5,48
    52010138:	0ff7f713          	zext.b	a4,a5
    5201013c:	a025                	j	52010164 <simple_itoa+0xbe>
    5201013e:	fc042783          	lw	a5,-64(s0)
    52010142:	2781                	sext.w	a5,a5
    52010144:	c781                	beqz	a5,5201014c <simple_itoa+0xa6>
    52010146:	04100793          	li	a5,65
    5201014a:	a019                	j	52010150 <simple_itoa+0xaa>
    5201014c:	06100793          	li	a5,97
    52010150:	fdc42703          	lw	a4,-36(s0)
    52010154:	0ff77713          	zext.b	a4,a4
    52010158:	9fb9                	addw	a5,a5,a4
    5201015a:	0ff7f793          	zext.b	a5,a5
    5201015e:	37d9                	addiw	a5,a5,-10
    52010160:	0ff7f713          	zext.b	a4,a5
    52010164:	fe843783          	ld	a5,-24(s0)
    52010168:	00178693          	addi	a3,a5,1 # a400001 <_start-0x47c0ffff>
    5201016c:	fed43423          	sd	a3,-24(s0)
    52010170:	00e78023          	sb	a4,0(a5)
    52010174:	fc446783          	lwu	a5,-60(s0)
    52010178:	fc843703          	ld	a4,-56(s0)
    5201017c:	02f747b3          	div	a5,a4,a5
    52010180:	fcf43423          	sd	a5,-56(s0)
    52010184:	fc843783          	ld	a5,-56(s0)
    52010188:	f8f043e3          	bgtz	a5,5201010e <simple_itoa+0x68>
    5201018c:	fe843703          	ld	a4,-24(s0)
    52010190:	fb043783          	ld	a5,-80(s0)
    52010194:	40f707b3          	sub	a5,a4,a5
    52010198:	fef42023          	sw	a5,-32(s0)
    5201019c:	a005                	j	520101bc <simple_itoa+0x116>
    5201019e:	fe843783          	ld	a5,-24(s0)
    520101a2:	00178713          	addi	a4,a5,1
    520101a6:	fee43423          	sd	a4,-24(s0)
    520101aa:	03000713          	li	a4,48
    520101ae:	00e78023          	sb	a4,0(a5)
    520101b2:	fe042783          	lw	a5,-32(s0)
    520101b6:	2785                	addiw	a5,a5,1
    520101b8:	fef42023          	sw	a5,-32(s0)
    520101bc:	fe042783          	lw	a5,-32(s0)
    520101c0:	873e                	mv	a4,a5
    520101c2:	fb842783          	lw	a5,-72(s0)
    520101c6:	2701                	sext.w	a4,a4
    520101c8:	2781                	sext.w	a5,a5
    520101ca:	fcf76ae3          	bltu	a4,a5,5201019e <simple_itoa+0xf8>
    520101ce:	fe442783          	lw	a5,-28(s0)
    520101d2:	2781                	sext.w	a5,a5
    520101d4:	cb99                	beqz	a5,520101ea <simple_itoa+0x144>
    520101d6:	fe843783          	ld	a5,-24(s0)
    520101da:	00178713          	addi	a4,a5,1
    520101de:	fee43423          	sd	a4,-24(s0)
    520101e2:	02d00713          	li	a4,45
    520101e6:	00e78023          	sb	a4,0(a5)
    520101ea:	fe843783          	ld	a5,-24(s0)
    520101ee:	00078023          	sb	zero,0(a5)
    520101f2:	fe843703          	ld	a4,-24(s0)
    520101f6:	fb043783          	ld	a5,-80(s0)
    520101fa:	40f707b3          	sub	a5,a4,a5
    520101fe:	fcf42c23          	sw	a5,-40(s0)
    52010202:	fe042023          	sw	zero,-32(s0)
    52010206:	a895                	j	5201027a <simple_itoa+0x1d4>
    52010208:	fe046783          	lwu	a5,-32(s0)
    5201020c:	fb043703          	ld	a4,-80(s0)
    52010210:	97ba                	add	a5,a5,a4
    52010212:	0007c783          	lbu	a5,0(a5)
    52010216:	fcf40ba3          	sb	a5,-41(s0)
    5201021a:	fd842783          	lw	a5,-40(s0)
    5201021e:	873e                	mv	a4,a5
    52010220:	fe042783          	lw	a5,-32(s0)
    52010224:	40f707bb          	subw	a5,a4,a5
    52010228:	2781                	sext.w	a5,a5
    5201022a:	37fd                	addiw	a5,a5,-1
    5201022c:	2781                	sext.w	a5,a5
    5201022e:	1782                	slli	a5,a5,0x20
    52010230:	9381                	srli	a5,a5,0x20
    52010232:	fb043703          	ld	a4,-80(s0)
    52010236:	973e                	add	a4,a4,a5
    52010238:	fe046783          	lwu	a5,-32(s0)
    5201023c:	fb043683          	ld	a3,-80(s0)
    52010240:	97b6                	add	a5,a5,a3
    52010242:	00074703          	lbu	a4,0(a4)
    52010246:	00e78023          	sb	a4,0(a5)
    5201024a:	fd842783          	lw	a5,-40(s0)
    5201024e:	873e                	mv	a4,a5
    52010250:	fe042783          	lw	a5,-32(s0)
    52010254:	40f707bb          	subw	a5,a4,a5
    52010258:	2781                	sext.w	a5,a5
    5201025a:	37fd                	addiw	a5,a5,-1
    5201025c:	2781                	sext.w	a5,a5
    5201025e:	1782                	slli	a5,a5,0x20
    52010260:	9381                	srli	a5,a5,0x20
    52010262:	fb043703          	ld	a4,-80(s0)
    52010266:	97ba                	add	a5,a5,a4
    52010268:	fd744703          	lbu	a4,-41(s0)
    5201026c:	00e78023          	sb	a4,0(a5)
    52010270:	fe042783          	lw	a5,-32(s0)
    52010274:	2785                	addiw	a5,a5,1
    52010276:	fef42023          	sw	a5,-32(s0)
    5201027a:	fd842783          	lw	a5,-40(s0)
    5201027e:	0017d79b          	srliw	a5,a5,0x1
    52010282:	0007871b          	sext.w	a4,a5
    52010286:	fe042783          	lw	a5,-32(s0)
    5201028a:	2781                	sext.w	a5,a5
    5201028c:	f6e7eee3          	bltu	a5,a4,52010208 <simple_itoa+0x162>
    52010290:	fd842783          	lw	a5,-40(s0)
    52010294:	853e                	mv	a0,a5
    52010296:	6426                	ld	s0,72(sp)
    52010298:	6161                	addi	sp,sp,80
    5201029a:	8082                	ret

000000005201029c <print_pc>:
    5201029c:	711d                	addi	sp,sp,-96
    5201029e:	ec86                	sd	ra,88(sp)
    520102a0:	e8a2                	sd	s0,80(sp)
    520102a2:	1080                	addi	s0,sp,96
    520102a4:	faa43423          	sd	a0,-88(s0)
    520102a8:	fb840713          	addi	a4,s0,-72
    520102ac:	4781                	li	a5,0
    520102ae:	4685                	li	a3,1
    520102b0:	4601                	li	a2,0
    520102b2:	45c1                	li	a1,16
    520102b4:	fa843503          	ld	a0,-88(s0)
    520102b8:	defff0ef          	jal	ra,520100a6 <simple_itoa>
    520102bc:	00000517          	auipc	a0,0x0
    520102c0:	05c50513          	addi	a0,a0,92 # 52010318 <main+0x30>
    520102c4:	dbdff0ef          	jal	ra,52010080 <bios_putstr>
    520102c8:	fb840793          	addi	a5,s0,-72
    520102cc:	853e                	mv	a0,a5
    520102ce:	db3ff0ef          	jal	ra,52010080 <bios_putstr>
    520102d2:	00000517          	auipc	a0,0x0
    520102d6:	06650513          	addi	a0,a0,102 # 52010338 <main+0x50>
    520102da:	da7ff0ef          	jal	ra,52010080 <bios_putstr>
    520102de:	0001                	nop
    520102e0:	60e6                	ld	ra,88(sp)
    520102e2:	6446                	ld	s0,80(sp)
    520102e4:	6125                	addi	sp,sp,96
    520102e6:	8082                	ret

00000000520102e8 <main>:
    520102e8:	1101                	addi	sp,sp,-32
    520102ea:	ec06                	sd	ra,24(sp)
    520102ec:	e822                	sd	s0,16(sp)
    520102ee:	1000                	addi	s0,sp,32
    520102f0:	fe043423          	sd	zero,-24(s0)
    520102f4:	fe843783          	ld	a5,-24(s0)
    520102f8:	00000797          	auipc	a5,0x0
    520102fc:	fef43423          	sd	a5,-24(s0)
    52010300:	fe843783          	ld	a5,-24(s0)
    52010304:	853e                	mv	a0,a5
    52010306:	f97ff0ef          	jal	ra,5201029c <print_pc>
    5201030a:	4781                	li	a5,0
    5201030c:	853e                	mv	a0,a5
    5201030e:	60e2                	ld	ra,24(sp)
    52010310:	6442                	ld	s0,16(sp)
    52010312:	6105                	addi	sp,sp,32
    52010314:	8082                	ret
