
build/bss:     file format elf64-littleriscv


Disassembly of section .text:

0000000052020000 <_start>:
    52020000:	1161                	addi	sp,sp,-8
    52020002:	e006                	sd	ra,0(sp)
    52020004:	520202b7          	lui	t0,0x52020
    52020008:	16028293          	addi	t0,t0,352 # 52020160 <buf>
    5202000c:	52020337          	lui	t1,0x52020
    52020010:	19830313          	addi	t1,t1,408 # 52020198 <__BSS_END__>
    52020014:	0062d763          	bge	t0,t1,52020022 <cleared>

0000000052020018 <clear_bss>:
    52020018:	0002a023          	sw	zero,0(t0)
    5202001c:	0291                	addi	t0,t0,4
    5202001e:	fe62cde3          	blt	t0,t1,52020018 <clear_bss>

0000000052020022 <cleared>:
    52020022:	084000ef          	jal	ra,520200a6 <main>
    52020026:	6082                	ld	ra,0(sp)
    52020028:	0121                	addi	sp,sp,8
    5202002a:	8082                	ret
	...

000000005202002e <call_jmptab>:
    5202002e:	7139                	addi	sp,sp,-64
    52020030:	fc06                	sd	ra,56(sp)
    52020032:	f822                	sd	s0,48(sp)
    52020034:	0080                	addi	s0,sp,64
    52020036:	fca43c23          	sd	a0,-40(s0)
    5202003a:	fcb43823          	sd	a1,-48(s0)
    5202003e:	fcc43423          	sd	a2,-56(s0)
    52020042:	fcd43023          	sd	a3,-64(s0)
    52020046:	fd843703          	ld	a4,-40(s0)
    5202004a:	0a4007b7          	lui	a5,0xa400
    5202004e:	1781                	addi	a5,a5,-32
    52020050:	97ba                	add	a5,a5,a4
    52020052:	078e                	slli	a5,a5,0x3
    52020054:	639c                	ld	a5,0(a5)
    52020056:	fef43423          	sd	a5,-24(s0)
    5202005a:	fe843783          	ld	a5,-24(s0)
    5202005e:	fef43023          	sd	a5,-32(s0)
    52020062:	fe043783          	ld	a5,-32(s0)
    52020066:	fc043603          	ld	a2,-64(s0)
    5202006a:	fc843583          	ld	a1,-56(s0)
    5202006e:	fd043503          	ld	a0,-48(s0)
    52020072:	9782                	jalr	a5
    52020074:	87aa                	mv	a5,a0
    52020076:	853e                	mv	a0,a5
    52020078:	70e2                	ld	ra,56(sp)
    5202007a:	7442                	ld	s0,48(sp)
    5202007c:	6121                	addi	sp,sp,64
    5202007e:	8082                	ret

0000000052020080 <bios_putstr>:
    52020080:	1101                	addi	sp,sp,-32
    52020082:	ec06                	sd	ra,24(sp)
    52020084:	e822                	sd	s0,16(sp)
    52020086:	1000                	addi	s0,sp,32
    52020088:	fea43423          	sd	a0,-24(s0)
    5202008c:	fe843783          	ld	a5,-24(s0)
    52020090:	4681                	li	a3,0
    52020092:	4601                	li	a2,0
    52020094:	85be                	mv	a1,a5
    52020096:	4501                	li	a0,0
    52020098:	f97ff0ef          	jal	ra,5202002e <call_jmptab>
    5202009c:	0001                	nop
    5202009e:	60e2                	ld	ra,24(sp)
    520200a0:	6442                	ld	s0,16(sp)
    520200a2:	6105                	addi	sp,sp,32
    520200a4:	8082                	ret

00000000520200a6 <main>:
    520200a6:	1101                	addi	sp,sp,-32
    520200a8:	ec06                	sd	ra,24(sp)
    520200aa:	e822                	sd	s0,16(sp)
    520200ac:	1000                	addi	s0,sp,32
    520200ae:	4785                	li	a5,1
    520200b0:	fef42623          	sw	a5,-20(s0)
    520200b4:	fe042423          	sw	zero,-24(s0)
    520200b8:	a01d                	j	520200de <main+0x38>
    520200ba:	00000717          	auipc	a4,0x0
    520200be:	0a670713          	addi	a4,a4,166 # 52020160 <buf>
    520200c2:	fe842783          	lw	a5,-24(s0)
    520200c6:	97ba                	add	a5,a5,a4
    520200c8:	0007c783          	lbu	a5,0(a5) # a400000 <_start-0x47c20000>
    520200cc:	c781                	beqz	a5,520200d4 <main+0x2e>
    520200ce:	fe042623          	sw	zero,-20(s0)
    520200d2:	a831                	j	520200ee <main+0x48>
    520200d4:	fe842783          	lw	a5,-24(s0)
    520200d8:	2785                	addiw	a5,a5,1
    520200da:	fef42423          	sw	a5,-24(s0)
    520200de:	fe842783          	lw	a5,-24(s0)
    520200e2:	0007871b          	sext.w	a4,a5
    520200e6:	03100793          	li	a5,49
    520200ea:	fce7d8e3          	bge	a5,a4,520200ba <main+0x14>
    520200ee:	fec42783          	lw	a5,-20(s0)
    520200f2:	2781                	sext.w	a5,a5
    520200f4:	cb81                	beqz	a5,52020104 <main+0x5e>
    520200f6:	00000517          	auipc	a0,0x0
    520200fa:	02a50513          	addi	a0,a0,42 # 52020120 <main+0x7a>
    520200fe:	f83ff0ef          	jal	ra,52020080 <bios_putstr>
    52020102:	a801                	j	52020112 <main+0x6c>
    52020104:	00000517          	auipc	a0,0x0
    52020108:	03c50513          	addi	a0,a0,60 # 52020140 <main+0x9a>
    5202010c:	f75ff0ef          	jal	ra,52020080 <bios_putstr>
    52020110:	a001                	j	52020110 <main+0x6a>
    52020112:	4781                	li	a5,0
    52020114:	853e                	mv	a0,a5
    52020116:	60e2                	ld	ra,24(sp)
    52020118:	6442                	ld	s0,16(sp)
    5202011a:	6105                	addi	sp,sp,32
    5202011c:	8082                	ret
