
build/data:     file format elf64-littleriscv


Disassembly of section .text:

0000000052030000 <_start>:
    52030000:	1161                	addi	sp,sp,-8
    52030002:	e006                	sd	ra,0(sp)
    52030004:	520312b7          	lui	t0,0x52031
    52030008:	19828293          	addi	t0,t0,408 # 52031198 <__BSS_END__>
    5203000c:	52031337          	lui	t1,0x52031
    52030010:	19830313          	addi	t1,t1,408 # 52031198 <__BSS_END__>
    52030014:	0062d763          	bge	t0,t1,52030022 <cleared>

0000000052030018 <clear_bss>:
    52030018:	0002a023          	sw	zero,0(t0)
    5203001c:	0291                	addi	t0,t0,4
    5203001e:	fe62cde3          	blt	t0,t1,52030018 <clear_bss>

0000000052030022 <cleared>:
    52030022:	084000ef          	jal	ra,520300a6 <main>
    52030026:	6082                	ld	ra,0(sp)
    52030028:	0121                	addi	sp,sp,8
    5203002a:	8082                	ret
	...

000000005203002e <call_jmptab>:
    5203002e:	7139                	addi	sp,sp,-64
    52030030:	fc06                	sd	ra,56(sp)
    52030032:	f822                	sd	s0,48(sp)
    52030034:	0080                	addi	s0,sp,64
    52030036:	fca43c23          	sd	a0,-40(s0)
    5203003a:	fcb43823          	sd	a1,-48(s0)
    5203003e:	fcc43423          	sd	a2,-56(s0)
    52030042:	fcd43023          	sd	a3,-64(s0)
    52030046:	fd843703          	ld	a4,-40(s0)
    5203004a:	0a4007b7          	lui	a5,0xa400
    5203004e:	1781                	addi	a5,a5,-32
    52030050:	97ba                	add	a5,a5,a4
    52030052:	078e                	slli	a5,a5,0x3
    52030054:	639c                	ld	a5,0(a5)
    52030056:	fef43423          	sd	a5,-24(s0)
    5203005a:	fe843783          	ld	a5,-24(s0)
    5203005e:	fef43023          	sd	a5,-32(s0)
    52030062:	fe043783          	ld	a5,-32(s0)
    52030066:	fc043603          	ld	a2,-64(s0)
    5203006a:	fc843583          	ld	a1,-56(s0)
    5203006e:	fd043503          	ld	a0,-48(s0)
    52030072:	9782                	jalr	a5
    52030074:	87aa                	mv	a5,a0
    52030076:	853e                	mv	a0,a5
    52030078:	70e2                	ld	ra,56(sp)
    5203007a:	7442                	ld	s0,48(sp)
    5203007c:	6121                	addi	sp,sp,64
    5203007e:	8082                	ret

0000000052030080 <bios_putstr>:
    52030080:	1101                	addi	sp,sp,-32
    52030082:	ec06                	sd	ra,24(sp)
    52030084:	e822                	sd	s0,16(sp)
    52030086:	1000                	addi	s0,sp,32
    52030088:	fea43423          	sd	a0,-24(s0)
    5203008c:	fe843783          	ld	a5,-24(s0)
    52030090:	4681                	li	a3,0
    52030092:	4601                	li	a2,0
    52030094:	85be                	mv	a1,a5
    52030096:	4501                	li	a0,0
    52030098:	f97ff0ef          	jal	ra,5203002e <call_jmptab>
    5203009c:	0001                	nop
    5203009e:	60e2                	ld	ra,24(sp)
    520300a0:	6442                	ld	s0,16(sp)
    520300a2:	6105                	addi	sp,sp,32
    520300a4:	8082                	ret

00000000520300a6 <main>:
    520300a6:	1101                	addi	sp,sp,-32
    520300a8:	ec06                	sd	ra,24(sp)
    520300aa:	e822                	sd	s0,16(sp)
    520300ac:	1000                	addi	s0,sp,32
    520300ae:	00000517          	auipc	a0,0x0
    520300b2:	07a50513          	addi	a0,a0,122 # 52030128 <main+0x82>
    520300b6:	fcbff0ef          	jal	ra,52030080 <bios_putstr>
    520300ba:	40000793          	li	a5,1024
    520300be:	fef42423          	sw	a5,-24(s0)
    520300c2:	fe042623          	sw	zero,-20(s0)
    520300c6:	a81d                	j	520300fc <main+0x56>
    520300c8:	00000717          	auipc	a4,0x0
    520300cc:	0d070713          	addi	a4,a4,208 # 52030198 <data>
    520300d0:	fec42783          	lw	a5,-20(s0)
    520300d4:	078a                	slli	a5,a5,0x2
    520300d6:	97ba                	add	a5,a5,a4
    520300d8:	4398                	lw	a4,0(a5)
    520300da:	fec42783          	lw	a5,-20(s0)
    520300de:	2781                	sext.w	a5,a5
    520300e0:	00e78963          	beq	a5,a4,520300f2 <main+0x4c>
    520300e4:	00000517          	auipc	a0,0x0
    520300e8:	06450513          	addi	a0,a0,100 # 52030148 <main+0xa2>
    520300ec:	f95ff0ef          	jal	ra,52030080 <bios_putstr>
    520300f0:	a001                	j	520300f0 <main+0x4a>
    520300f2:	fec42783          	lw	a5,-20(s0)
    520300f6:	2785                	addiw	a5,a5,1
    520300f8:	fef42623          	sw	a5,-20(s0)
    520300fc:	fec42783          	lw	a5,-20(s0)
    52030100:	873e                	mv	a4,a5
    52030102:	fe842783          	lw	a5,-24(s0)
    52030106:	2701                	sext.w	a4,a4
    52030108:	2781                	sext.w	a5,a5
    5203010a:	faf74fe3          	blt	a4,a5,520300c8 <main+0x22>
    5203010e:	00000517          	auipc	a0,0x0
    52030112:	06250513          	addi	a0,a0,98 # 52030170 <main+0xca>
    52030116:	f6bff0ef          	jal	ra,52030080 <bios_putstr>
    5203011a:	4781                	li	a5,0
    5203011c:	853e                	mv	a0,a5
    5203011e:	60e2                	ld	ra,24(sp)
    52030120:	6442                	ld	s0,16(sp)
    52030122:	6105                	addi	sp,sp,32
    52030124:	8082                	ret
