
build/main:     file format elf64-littleriscv


Disassembly of section .text:

0000000050201000 <_start>:
    50201000:	10401073          	csrw	sie,zero
    50201004:	14401073          	csrw	sip,zero
    50201008:	502022b7          	lui	t0,0x50202
    5020100c:	72c28293          	addi	t0,t0,1836 # 5020272c <tasknum>
    50201010:	50203337          	lui	t1,0x50203
    50201014:	a7030313          	addi	t1,t1,-1424 # 50202a70 <__BSS_END__>
    50201018:	0062d763          	bge	t0,t1,50201026 <cleared>

000000005020101c <clear_bss>:
    5020101c:	0002a023          	sw	zero,0(t0)
    50201020:	0291                	addi	t0,t0,4
    50201022:	fe62cde3          	blt	t0,t1,5020101c <clear_bss>

0000000050201026 <cleared>:
    50201026:	50500137          	lui	sp,0x50500
    5020102a:	00010113          	mv	sp,sp
    5020102e:	278000ef          	jal	ra,502012a6 <main>

0000000050201032 <loop>:
    50201032:	10500073          	wfi
    50201036:	bff5                	j	50201032 <loop>
	...

000000005020103a <call_jmptab>:
    5020103a:	7139                	addi	sp,sp,-64
    5020103c:	fc06                	sd	ra,56(sp)
    5020103e:	f822                	sd	s0,48(sp)
    50201040:	0080                	addi	s0,sp,64
    50201042:	fca43c23          	sd	a0,-40(s0)
    50201046:	fcb43823          	sd	a1,-48(s0)
    5020104a:	fcc43423          	sd	a2,-56(s0)
    5020104e:	fcd43023          	sd	a3,-64(s0)
    50201052:	fd843703          	ld	a4,-40(s0)
    50201056:	0a4007b7          	lui	a5,0xa400
    5020105a:	1781                	addi	a5,a5,-32
    5020105c:	97ba                	add	a5,a5,a4
    5020105e:	078e                	slli	a5,a5,0x3
    50201060:	639c                	ld	a5,0(a5)
    50201062:	fef43423          	sd	a5,-24(s0)
    50201066:	fe843783          	ld	a5,-24(s0)
    5020106a:	fef43023          	sd	a5,-32(s0)
    5020106e:	fe043783          	ld	a5,-32(s0)
    50201072:	fc043603          	ld	a2,-64(s0)
    50201076:	fc843583          	ld	a1,-56(s0)
    5020107a:	fd043503          	ld	a0,-48(s0)
    5020107e:	9782                	jalr	a5
    50201080:	87aa                	mv	a5,a0
    50201082:	853e                	mv	a0,a5
    50201084:	70e2                	ld	ra,56(sp)
    50201086:	7442                	ld	s0,48(sp)
    50201088:	6121                	addi	sp,sp,64
    5020108a:	8082                	ret

000000005020108c <bios_putstr>:
    5020108c:	1101                	addi	sp,sp,-32
    5020108e:	ec06                	sd	ra,24(sp)
    50201090:	e822                	sd	s0,16(sp)
    50201092:	1000                	addi	s0,sp,32
    50201094:	fea43423          	sd	a0,-24(s0)
    50201098:	fe843783          	ld	a5,-24(s0)
    5020109c:	4681                	li	a3,0
    5020109e:	4601                	li	a2,0
    502010a0:	85be                	mv	a1,a5
    502010a2:	4501                	li	a0,0
    502010a4:	f97ff0ef          	jal	ra,5020103a <call_jmptab>
    502010a8:	0001                	nop
    502010aa:	60e2                	ld	ra,24(sp)
    502010ac:	6442                	ld	s0,16(sp)
    502010ae:	6105                	addi	sp,sp,32
    502010b0:	8082                	ret

00000000502010b2 <bss_check>:
    502010b2:	1101                	addi	sp,sp,-32
    502010b4:	ec22                	sd	s0,24(sp)
    502010b6:	1000                	addi	s0,sp,32
    502010b8:	fe042623          	sw	zero,-20(s0)
    502010bc:	a015                	j	502010e0 <bss_check+0x2e>
    502010be:	00001717          	auipc	a4,0x1
    502010c2:	67270713          	addi	a4,a4,1650 # 50202730 <buf>
    502010c6:	fec42783          	lw	a5,-20(s0)
    502010ca:	97ba                	add	a5,a5,a4
    502010cc:	0007c783          	lbu	a5,0(a5) # a400000 <_start-0x45e01000>
    502010d0:	c399                	beqz	a5,502010d6 <bss_check+0x24>
    502010d2:	4781                	li	a5,0
    502010d4:	a839                	j	502010f2 <bss_check+0x40>
    502010d6:	fec42783          	lw	a5,-20(s0)
    502010da:	2785                	addiw	a5,a5,1
    502010dc:	fef42623          	sw	a5,-20(s0)
    502010e0:	fec42783          	lw	a5,-20(s0)
    502010e4:	0007871b          	sext.w	a4,a5
    502010e8:	03f00793          	li	a5,63
    502010ec:	fce7d9e3          	bge	a5,a4,502010be <bss_check+0xc>
    502010f0:	4785                	li	a5,1
    502010f2:	853e                	mv	a0,a5
    502010f4:	6462                	ld	s0,24(sp)
    502010f6:	6105                	addi	sp,sp,32
    502010f8:	8082                	ret

00000000502010fa <init_bios>:
    502010fa:	1101                	addi	sp,sp,-32
    502010fc:	ec22                	sd	s0,24(sp)
    502010fe:	1000                	addi	s0,sp,32
    50201100:	520007b7          	lui	a5,0x52000
    50201104:	f0078793          	addi	a5,a5,-256 # 51ffff00 <__BSS_END__+0x1dfd490>
    50201108:	fef43423          	sd	a5,-24(s0)
    5020110c:	fe843783          	ld	a5,-24(s0)
    50201110:	00000717          	auipc	a4,0x0
    50201114:	49a70713          	addi	a4,a4,1178 # 502015aa <port_write>
    50201118:	e398                	sd	a4,0(a5)
    5020111a:	fe843783          	ld	a5,-24(s0)
    5020111e:	07a1                	addi	a5,a5,8
    50201120:	00000717          	auipc	a4,0x0
    50201124:	46070713          	addi	a4,a4,1120 # 50201580 <port_write_ch>
    50201128:	e398                	sd	a4,0(a5)
    5020112a:	fe843783          	ld	a5,-24(s0)
    5020112e:	07c1                	addi	a5,a5,16
    50201130:	00000717          	auipc	a4,0x0
    50201134:	4a270713          	addi	a4,a4,1186 # 502015d2 <port_read_ch>
    50201138:	e398                	sd	a4,0(a5)
    5020113a:	fe843783          	ld	a5,-24(s0)
    5020113e:	07e1                	addi	a5,a5,24
    50201140:	00000717          	auipc	a4,0x0
    50201144:	4b870713          	addi	a4,a4,1208 # 502015f8 <sd_read>
    50201148:	e398                	sd	a4,0(a5)
    5020114a:	0001                	nop
    5020114c:	6462                	ld	s0,24(sp)
    5020114e:	6105                	addi	sp,sp,32
    50201150:	8082                	ret

0000000050201152 <init_task_info>:
    50201152:	7179                	addi	sp,sp,-48
    50201154:	f406                	sd	ra,40(sp)
    50201156:	f022                	sd	s0,32(sp)
    50201158:	1800                	addi	s0,sp,48
    5020115a:	502007b7          	lui	a5,0x50200
    5020115e:	1f278793          	addi	a5,a5,498 # 502001f2 <_start-0xe0e>
    50201162:	639c                	ld	a5,0(a5)
    50201164:	fcf43c23          	sd	a5,-40(s0)
    50201168:	502007b7          	lui	a5,0x50200
    5020116c:	1fa78793          	addi	a5,a5,506 # 502001fa <_start-0xe06>
    50201170:	00079703          	lh	a4,0(a5)
    50201174:	00001797          	auipc	a5,0x1
    50201178:	5b878793          	addi	a5,a5,1464 # 5020272c <tasknum>
    5020117c:	00e79023          	sh	a4,0(a5)
    50201180:	fd843703          	ld	a4,-40(s0)
    50201184:	00001797          	auipc	a5,0x1
    50201188:	5a878793          	addi	a5,a5,1448 # 5020272c <tasknum>
    5020118c:	00079783          	lh	a5,0(a5)
    50201190:	2781                	sext.w	a5,a5
    50201192:	86be                	mv	a3,a5
    50201194:	87b6                	mv	a5,a3
    50201196:	0017979b          	slliw	a5,a5,0x1
    5020119a:	9fb5                	addw	a5,a5,a3
    5020119c:	0047979b          	slliw	a5,a5,0x4
    502011a0:	2781                	sext.w	a5,a5
    502011a2:	4681                	li	a3,0
    502011a4:	863e                	mv	a2,a5
    502011a6:	85ba                	mv	a1,a4
    502011a8:	52000537          	lui	a0,0x52000
    502011ac:	522000ef          	jal	ra,502016ce <load_img>
    502011b0:	87aa                	mv	a5,a0
    502011b2:	fef43423          	sd	a5,-24(s0)
    502011b6:	fe041323          	sh	zero,-26(s0)
    502011ba:	a8a9                	j	50201214 <init_task_info+0xc2>
    502011bc:	fe641783          	lh	a5,-26(s0)
    502011c0:	0007871b          	sext.w	a4,a5
    502011c4:	00001697          	auipc	a3,0x1
    502011c8:	5ac68693          	addi	a3,a3,1452 # 50202770 <tasks>
    502011cc:	87ba                	mv	a5,a4
    502011ce:	0786                	slli	a5,a5,0x1
    502011d0:	97ba                	add	a5,a5,a4
    502011d2:	0792                	slli	a5,a5,0x4
    502011d4:	97b6                	add	a5,a5,a3
    502011d6:	fe843703          	ld	a4,-24(s0)
    502011da:	00073803          	ld	a6,0(a4)
    502011de:	6708                	ld	a0,8(a4)
    502011e0:	6b0c                	ld	a1,16(a4)
    502011e2:	6f10                	ld	a2,24(a4)
    502011e4:	7314                	ld	a3,32(a4)
    502011e6:	7718                	ld	a4,40(a4)
    502011e8:	0107b023          	sd	a6,0(a5)
    502011ec:	e788                	sd	a0,8(a5)
    502011ee:	eb8c                	sd	a1,16(a5)
    502011f0:	ef90                	sd	a2,24(a5)
    502011f2:	f394                	sd	a3,32(a5)
    502011f4:	f798                	sd	a4,40(a5)
    502011f6:	fe641783          	lh	a5,-26(s0)
    502011fa:	17c2                	slli	a5,a5,0x30
    502011fc:	93c1                	srli	a5,a5,0x30
    502011fe:	2785                	addiw	a5,a5,1
    50201200:	17c2                	slli	a5,a5,0x30
    50201202:	93c1                	srli	a5,a5,0x30
    50201204:	fef41323          	sh	a5,-26(s0)
    50201208:	fe843783          	ld	a5,-24(s0)
    5020120c:	03078793          	addi	a5,a5,48
    50201210:	fef43423          	sd	a5,-24(s0)
    50201214:	00001797          	auipc	a5,0x1
    50201218:	51878793          	addi	a5,a5,1304 # 5020272c <tasknum>
    5020121c:	00079783          	lh	a5,0(a5)
    50201220:	fe641703          	lh	a4,-26(s0)
    50201224:	2701                	sext.w	a4,a4
    50201226:	2781                	sext.w	a5,a5
    50201228:	f8f74ae3          	blt	a4,a5,502011bc <init_task_info+0x6a>
    5020122c:	0001                	nop
    5020122e:	0001                	nop
    50201230:	70a2                	ld	ra,40(sp)
    50201232:	7402                	ld	s0,32(sp)
    50201234:	6145                	addi	sp,sp,48
    50201236:	8082                	ret

0000000050201238 <app_list>:
    50201238:	1101                	addi	sp,sp,-32
    5020123a:	ec06                	sd	ra,24(sp)
    5020123c:	e822                	sd	s0,16(sp)
    5020123e:	1000                	addi	s0,sp,32
    50201240:	00001517          	auipc	a0,0x1
    50201244:	2e850513          	addi	a0,a0,744 # 50202528 <z_st+0x31e>
    50201248:	e45ff0ef          	jal	ra,5020108c <bios_putstr>
    5020124c:	fe042623          	sw	zero,-20(s0)
    50201250:	a805                	j	50201280 <app_list+0x48>
    50201252:	fec42703          	lw	a4,-20(s0)
    50201256:	87ba                	mv	a5,a4
    50201258:	0786                	slli	a5,a5,0x1
    5020125a:	97ba                	add	a5,a5,a4
    5020125c:	0792                	slli	a5,a5,0x4
    5020125e:	00001717          	auipc	a4,0x1
    50201262:	51270713          	addi	a4,a4,1298 # 50202770 <tasks>
    50201266:	97ba                	add	a5,a5,a4
    50201268:	85be                	mv	a1,a5
    5020126a:	00001517          	auipc	a0,0x1
    5020126e:	2ce50513          	addi	a0,a0,718 # 50202538 <z_st+0x32e>
    50201272:	10d000ef          	jal	ra,50201b7e <CONSOLE_PRINT>
    50201276:	fec42783          	lw	a5,-20(s0)
    5020127a:	2785                	addiw	a5,a5,1
    5020127c:	fef42623          	sw	a5,-20(s0)
    50201280:	00001797          	auipc	a5,0x1
    50201284:	4ac78793          	addi	a5,a5,1196 # 5020272c <tasknum>
    50201288:	00079783          	lh	a5,0(a5)
    5020128c:	0007871b          	sext.w	a4,a5
    50201290:	fec42783          	lw	a5,-20(s0)
    50201294:	2781                	sext.w	a5,a5
    50201296:	fae7cee3          	blt	a5,a4,50201252 <app_list+0x1a>
    5020129a:	0001                	nop
    5020129c:	0001                	nop
    5020129e:	60e2                	ld	ra,24(sp)
    502012a0:	6442                	ld	s0,16(sp)
    502012a2:	6105                	addi	sp,sp,32
    502012a4:	8082                	ret

00000000502012a6 <main>:
    502012a6:	1101                	addi	sp,sp,-32
    502012a8:	ec06                	sd	ra,24(sp)
    502012aa:	e822                	sd	s0,16(sp)
    502012ac:	1000                	addi	s0,sp,32
    502012ae:	e05ff0ef          	jal	ra,502010b2 <bss_check>
    502012b2:	87aa                	mv	a5,a0
    502012b4:	fef42623          	sw	a5,-20(s0)
    502012b8:	e43ff0ef          	jal	ra,502010fa <init_bios>
    502012bc:	e97ff0ef          	jal	ra,50201152 <init_task_info>
    502012c0:	00001517          	auipc	a0,0x1
    502012c4:	2a050513          	addi	a0,a0,672 # 50202560 <z_st+0x356>
    502012c8:	dc5ff0ef          	jal	ra,5020108c <bios_putstr>
    502012cc:	fec42783          	lw	a5,-20(s0)
    502012d0:	2781                	sext.w	a5,a5
    502012d2:	c781                	beqz	a5,502012da <main+0x34>
    502012d4:	07400793          	li	a5,116
    502012d8:	a019                	j	502012de <main+0x38>
    502012da:	06600793          	li	a5,102
    502012de:	00001717          	auipc	a4,0x1
    502012e2:	45270713          	addi	a4,a4,1106 # 50202730 <buf>
    502012e6:	00f70023          	sb	a5,0(a4)
    502012ea:	00001797          	auipc	a5,0x1
    502012ee:	43e78793          	addi	a5,a5,1086 # 50202728 <version>
    502012f2:	439c                	lw	a5,0(a5)
    502012f4:	0ff7f793          	zext.b	a5,a5
    502012f8:	0307879b          	addiw	a5,a5,48
    502012fc:	0ff7f713          	zext.b	a4,a5
    50201300:	00001797          	auipc	a5,0x1
    50201304:	43078793          	addi	a5,a5,1072 # 50202730 <buf>
    50201308:	00e780a3          	sb	a4,1(a5)
    5020130c:	00001797          	auipc	a5,0x1
    50201310:	42478793          	addi	a5,a5,1060 # 50202730 <buf>
    50201314:	00078123          	sb	zero,2(a5)
    50201318:	00001597          	auipc	a1,0x1
    5020131c:	41858593          	addi	a1,a1,1048 # 50202730 <buf>
    50201320:	00001517          	auipc	a0,0x1
    50201324:	25050513          	addi	a0,a0,592 # 50202570 <z_st+0x366>
    50201328:	057000ef          	jal	ra,50201b7e <CONSOLE_PRINT>
    5020132c:	00001797          	auipc	a5,0x1
    50201330:	40078793          	addi	a5,a5,1024 # 5020272c <tasknum>
    50201334:	00079783          	lh	a5,0(a5)
    50201338:	2781                	sext.w	a5,a5
    5020133a:	4701                	li	a4,0
    5020133c:	04000693          	li	a3,64
    50201340:	00001617          	auipc	a2,0x1
    50201344:	3f060613          	addi	a2,a2,1008 # 50202730 <buf>
    50201348:	45a9                	li	a1,10
    5020134a:	853e                	mv	a0,a5
    5020134c:	6bf000ef          	jal	ra,5020220a <z_st>
    50201350:	00001597          	auipc	a1,0x1
    50201354:	3e058593          	addi	a1,a1,992 # 50202730 <buf>
    50201358:	00001517          	auipc	a0,0x1
    5020135c:	23850513          	addi	a0,a0,568 # 50202590 <z_st+0x386>
    50201360:	01f000ef          	jal	ra,50201b7e <CONSOLE_PRINT>
    50201364:	00001517          	auipc	a0,0x1
    50201368:	23c50513          	addi	a0,a0,572 # 502025a0 <z_st+0x396>
    5020136c:	d21ff0ef          	jal	ra,5020108c <bios_putstr>
    50201370:	04000593          	li	a1,64
    50201374:	00001517          	auipc	a0,0x1
    50201378:	3bc50513          	addi	a0,a0,956 # 50202730 <buf>
    5020137c:	62e000ef          	jal	ra,502019aa <CONSOLE_GETLINE>
    50201380:	00001597          	auipc	a1,0x1
    50201384:	22858593          	addi	a1,a1,552 # 502025a8 <z_st+0x39e>
    50201388:	00001517          	auipc	a0,0x1
    5020138c:	3a850513          	addi	a0,a0,936 # 50202730 <buf>
    50201390:	1d1000ef          	jal	ra,50201d60 <strcmp>
    50201394:	87aa                	mv	a5,a0
    50201396:	e781                	bnez	a5,5020139e <main+0xf8>
    50201398:	ea1ff0ef          	jal	ra,50201238 <app_list>
    5020139c:	aa41                	j	5020152c <main+0x286>
    5020139e:	00001517          	auipc	a0,0x1
    502013a2:	39250513          	addi	a0,a0,914 # 50202730 <buf>
    502013a6:	435000ef          	jal	ra,50201fda <get_taskid_by_name>
    502013aa:	87aa                	mv	a5,a0
    502013ac:	fef42423          	sw	a5,-24(s0)
    502013b0:	fe842783          	lw	a5,-24(s0)
    502013b4:	2781                	sext.w	a5,a5
    502013b6:	0007dd63          	bgez	a5,502013d0 <main+0x12a>
    502013ba:	00001597          	auipc	a1,0x1
    502013be:	37658593          	addi	a1,a1,886 # 50202730 <buf>
    502013c2:	00001517          	auipc	a0,0x1
    502013c6:	1ee50513          	addi	a0,a0,494 # 502025b0 <z_st+0x3a6>
    502013ca:	7b4000ef          	jal	ra,50201b7e <CONSOLE_PRINT>
    502013ce:	aab9                	j	5020152c <main+0x286>
    502013d0:	fe842783          	lw	a5,-24(s0)
    502013d4:	4701                	li	a4,0
    502013d6:	04000693          	li	a3,64
    502013da:	00001617          	auipc	a2,0x1
    502013de:	35660613          	addi	a2,a2,854 # 50202730 <buf>
    502013e2:	45a9                	li	a1,10
    502013e4:	853e                	mv	a0,a5
    502013e6:	625000ef          	jal	ra,5020220a <z_st>
    502013ea:	00001597          	auipc	a1,0x1
    502013ee:	34658593          	addi	a1,a1,838 # 50202730 <buf>
    502013f2:	00001517          	auipc	a0,0x1
    502013f6:	1ee50513          	addi	a0,a0,494 # 502025e0 <z_st+0x3d6>
    502013fa:	784000ef          	jal	ra,50201b7e <CONSOLE_PRINT>
    502013fe:	00001697          	auipc	a3,0x1
    50201402:	37268693          	addi	a3,a3,882 # 50202770 <tasks>
    50201406:	fe842703          	lw	a4,-24(s0)
    5020140a:	87ba                	mv	a5,a4
    5020140c:	0786                	slli	a5,a5,0x1
    5020140e:	97ba                	add	a5,a5,a4
    50201410:	0792                	slli	a5,a5,0x4
    50201412:	97b6                	add	a5,a5,a3
    50201414:	739c                	ld	a5,32(a5)
    50201416:	2781                	sext.w	a5,a5
    50201418:	4721                	li	a4,8
    5020141a:	04000693          	li	a3,64
    5020141e:	00001617          	auipc	a2,0x1
    50201422:	31260613          	addi	a2,a2,786 # 50202730 <buf>
    50201426:	45c1                	li	a1,16
    50201428:	853e                	mv	a0,a5
    5020142a:	5e1000ef          	jal	ra,5020220a <z_st>
    5020142e:	00001597          	auipc	a1,0x1
    50201432:	30258593          	addi	a1,a1,770 # 50202730 <buf>
    50201436:	00001517          	auipc	a0,0x1
    5020143a:	1ba50513          	addi	a0,a0,442 # 502025f0 <z_st+0x3e6>
    5020143e:	740000ef          	jal	ra,50201b7e <CONSOLE_PRINT>
    50201442:	00001697          	auipc	a3,0x1
    50201446:	32e68693          	addi	a3,a3,814 # 50202770 <tasks>
    5020144a:	fe842703          	lw	a4,-24(s0)
    5020144e:	87ba                	mv	a5,a4
    50201450:	0786                	slli	a5,a5,0x1
    50201452:	97ba                	add	a5,a5,a4
    50201454:	0792                	slli	a5,a5,0x4
    50201456:	97b6                	add	a5,a5,a3
    50201458:	57dc                	lw	a5,44(a5)
    5020145a:	4721                	li	a4,8
    5020145c:	04000693          	li	a3,64
    50201460:	00001617          	auipc	a2,0x1
    50201464:	2d060613          	addi	a2,a2,720 # 50202730 <buf>
    50201468:	45c1                	li	a1,16
    5020146a:	853e                	mv	a0,a5
    5020146c:	59f000ef          	jal	ra,5020220a <z_st>
    50201470:	00001597          	auipc	a1,0x1
    50201474:	2c058593          	addi	a1,a1,704 # 50202730 <buf>
    50201478:	00001517          	auipc	a0,0x1
    5020147c:	19050513          	addi	a0,a0,400 # 50202608 <z_st+0x3fe>
    50201480:	6fe000ef          	jal	ra,50201b7e <CONSOLE_PRINT>
    50201484:	00001697          	auipc	a3,0x1
    50201488:	2ec68693          	addi	a3,a3,748 # 50202770 <tasks>
    5020148c:	fe842703          	lw	a4,-24(s0)
    50201490:	87ba                	mv	a5,a4
    50201492:	0786                	slli	a5,a5,0x1
    50201494:	97ba                	add	a5,a5,a4
    50201496:	0792                	slli	a5,a5,0x4
    50201498:	97b6                	add	a5,a5,a3
    5020149a:	579c                	lw	a5,40(a5)
    5020149c:	4721                	li	a4,8
    5020149e:	04000693          	li	a3,64
    502014a2:	00001617          	auipc	a2,0x1
    502014a6:	28e60613          	addi	a2,a2,654 # 50202730 <buf>
    502014aa:	45c1                	li	a1,16
    502014ac:	853e                	mv	a0,a5
    502014ae:	55d000ef          	jal	ra,5020220a <z_st>
    502014b2:	00001597          	auipc	a1,0x1
    502014b6:	27e58593          	addi	a1,a1,638 # 50202730 <buf>
    502014ba:	00001517          	auipc	a0,0x1
    502014be:	16650513          	addi	a0,a0,358 # 50202620 <z_st+0x416>
    502014c2:	6bc000ef          	jal	ra,50201b7e <CONSOLE_PRINT>
    502014c6:	fe842703          	lw	a4,-24(s0)
    502014ca:	87ba                	mv	a5,a4
    502014cc:	0786                	slli	a5,a5,0x1
    502014ce:	97ba                	add	a5,a5,a4
    502014d0:	0792                	slli	a5,a5,0x4
    502014d2:	00001717          	auipc	a4,0x1
    502014d6:	29e70713          	addi	a4,a4,670 # 50202770 <tasks>
    502014da:	97ba                	add	a5,a5,a4
    502014dc:	85be                	mv	a1,a5
    502014de:	00001517          	auipc	a0,0x1
    502014e2:	15a50513          	addi	a0,a0,346 # 50202638 <z_st+0x42e>
    502014e6:	698000ef          	jal	ra,50201b7e <CONSOLE_PRINT>
    502014ea:	fe842783          	lw	a5,-24(s0)
    502014ee:	853e                	mv	a0,a5
    502014f0:	2b6000ef          	jal	ra,502017a6 <load_task_img>
    502014f4:	87aa                	mv	a5,a0
    502014f6:	fef43023          	sd	a5,-32(s0)
    502014fa:	fe043783          	ld	a5,-32(s0)
    502014fe:	eb81                	bnez	a5,5020150e <main+0x268>
    50201500:	00001517          	auipc	a0,0x1
    50201504:	17050513          	addi	a0,a0,368 # 50202670 <z_st+0x466>
    50201508:	b85ff0ef          	jal	ra,5020108c <bios_putstr>
    5020150c:	bda1                	j	50201364 <main+0xbe>
    5020150e:	00001517          	auipc	a0,0x1
    50201512:	17250513          	addi	a0,a0,370 # 50202680 <z_st+0x476>
    50201516:	b77ff0ef          	jal	ra,5020108c <bios_putstr>
    5020151a:	fe043783          	ld	a5,-32(s0)
    5020151e:	9782                	jalr	a5
    50201520:	00001517          	auipc	a0,0x1
    50201524:	17850513          	addi	a0,a0,376 # 50202698 <z_st+0x48e>
    50201528:	b65ff0ef          	jal	ra,5020108c <bios_putstr>
    5020152c:	bd25                	j	50201364 <main+0xbe>

000000005020152e <call_bios>:
    5020152e:	715d                	addi	sp,sp,-80
    50201530:	e486                	sd	ra,72(sp)
    50201532:	e0a2                	sd	s0,64(sp)
    50201534:	0880                	addi	s0,sp,80
    50201536:	fca43c23          	sd	a0,-40(s0)
    5020153a:	fcb43823          	sd	a1,-48(s0)
    5020153e:	fcc43423          	sd	a2,-56(s0)
    50201542:	fcd43023          	sd	a3,-64(s0)
    50201546:	fae43c23          	sd	a4,-72(s0)
    5020154a:	faf43823          	sd	a5,-80(s0)
    5020154e:	501507b7          	lui	a5,0x50150
    50201552:	fef43423          	sd	a5,-24(s0)
    50201556:	fe843803          	ld	a6,-24(s0)
    5020155a:	fb043783          	ld	a5,-80(s0)
    5020155e:	fb843703          	ld	a4,-72(s0)
    50201562:	fc043683          	ld	a3,-64(s0)
    50201566:	fc843603          	ld	a2,-56(s0)
    5020156a:	fd043583          	ld	a1,-48(s0)
    5020156e:	fd843503          	ld	a0,-40(s0)
    50201572:	9802                	jalr	a6
    50201574:	87aa                	mv	a5,a0
    50201576:	853e                	mv	a0,a5
    50201578:	60a6                	ld	ra,72(sp)
    5020157a:	6406                	ld	s0,64(sp)
    5020157c:	6161                	addi	sp,sp,80
    5020157e:	8082                	ret

0000000050201580 <port_write_ch>:
    50201580:	1101                	addi	sp,sp,-32
    50201582:	ec06                	sd	ra,24(sp)
    50201584:	e822                	sd	s0,16(sp)
    50201586:	1000                	addi	s0,sp,32
    50201588:	87aa                	mv	a5,a0
    5020158a:	fef407a3          	sb	a5,-17(s0)
    5020158e:	fef44583          	lbu	a1,-17(s0)
    50201592:	4781                	li	a5,0
    50201594:	4701                	li	a4,0
    50201596:	4681                	li	a3,0
    50201598:	4601                	li	a2,0
    5020159a:	4505                	li	a0,1
    5020159c:	f93ff0ef          	jal	ra,5020152e <call_bios>
    502015a0:	0001                	nop
    502015a2:	60e2                	ld	ra,24(sp)
    502015a4:	6442                	ld	s0,16(sp)
    502015a6:	6105                	addi	sp,sp,32
    502015a8:	8082                	ret

00000000502015aa <port_write>:
    502015aa:	1101                	addi	sp,sp,-32
    502015ac:	ec06                	sd	ra,24(sp)
    502015ae:	e822                	sd	s0,16(sp)
    502015b0:	1000                	addi	s0,sp,32
    502015b2:	fea43423          	sd	a0,-24(s0)
    502015b6:	fe843583          	ld	a1,-24(s0)
    502015ba:	4781                	li	a5,0
    502015bc:	4701                	li	a4,0
    502015be:	4681                	li	a3,0
    502015c0:	4601                	li	a2,0
    502015c2:	4525                	li	a0,9
    502015c4:	f6bff0ef          	jal	ra,5020152e <call_bios>
    502015c8:	0001                	nop
    502015ca:	60e2                	ld	ra,24(sp)
    502015cc:	6442                	ld	s0,16(sp)
    502015ce:	6105                	addi	sp,sp,32
    502015d0:	8082                	ret

00000000502015d2 <port_read_ch>:
    502015d2:	1141                	addi	sp,sp,-16
    502015d4:	e406                	sd	ra,8(sp)
    502015d6:	e022                	sd	s0,0(sp)
    502015d8:	0800                	addi	s0,sp,16
    502015da:	4781                	li	a5,0
    502015dc:	4701                	li	a4,0
    502015de:	4681                	li	a3,0
    502015e0:	4601                	li	a2,0
    502015e2:	4581                	li	a1,0
    502015e4:	4509                	li	a0,2
    502015e6:	f49ff0ef          	jal	ra,5020152e <call_bios>
    502015ea:	87aa                	mv	a5,a0
    502015ec:	2781                	sext.w	a5,a5
    502015ee:	853e                	mv	a0,a5
    502015f0:	60a2                	ld	ra,8(sp)
    502015f2:	6402                	ld	s0,0(sp)
    502015f4:	0141                	addi	sp,sp,16
    502015f6:	8082                	ret

00000000502015f8 <sd_read>:
    502015f8:	1101                	addi	sp,sp,-32
    502015fa:	ec06                	sd	ra,24(sp)
    502015fc:	e822                	sd	s0,16(sp)
    502015fe:	1000                	addi	s0,sp,32
    50201600:	87aa                	mv	a5,a0
    50201602:	86ae                	mv	a3,a1
    50201604:	8732                	mv	a4,a2
    50201606:	fef42623          	sw	a5,-20(s0)
    5020160a:	87b6                	mv	a5,a3
    5020160c:	fef42423          	sw	a5,-24(s0)
    50201610:	87ba                	mv	a5,a4
    50201612:	fef42223          	sw	a5,-28(s0)
    50201616:	fec46583          	lwu	a1,-20(s0)
    5020161a:	fe846603          	lwu	a2,-24(s0)
    5020161e:	fe446683          	lwu	a3,-28(s0)
    50201622:	4781                	li	a5,0
    50201624:	4701                	li	a4,0
    50201626:	452d                	li	a0,11
    50201628:	f07ff0ef          	jal	ra,5020152e <call_bios>
    5020162c:	87aa                	mv	a5,a0
    5020162e:	2781                	sext.w	a5,a5
    50201630:	853e                	mv	a0,a5
    50201632:	60e2                	ld	ra,24(sp)
    50201634:	6442                	ld	s0,16(sp)
    50201636:	6105                	addi	sp,sp,32
    50201638:	8082                	ret

000000005020163a <call_jmptab>:
    5020163a:	7139                	addi	sp,sp,-64
    5020163c:	fc06                	sd	ra,56(sp)
    5020163e:	f822                	sd	s0,48(sp)
    50201640:	0080                	addi	s0,sp,64
    50201642:	fca43c23          	sd	a0,-40(s0)
    50201646:	fcb43823          	sd	a1,-48(s0)
    5020164a:	fcc43423          	sd	a2,-56(s0)
    5020164e:	fcd43023          	sd	a3,-64(s0)
    50201652:	fd843703          	ld	a4,-40(s0)
    50201656:	0a4007b7          	lui	a5,0xa400
    5020165a:	1781                	addi	a5,a5,-32
    5020165c:	97ba                	add	a5,a5,a4
    5020165e:	078e                	slli	a5,a5,0x3
    50201660:	639c                	ld	a5,0(a5)
    50201662:	fef43423          	sd	a5,-24(s0)
    50201666:	fe843783          	ld	a5,-24(s0)
    5020166a:	fef43023          	sd	a5,-32(s0)
    5020166e:	fe043783          	ld	a5,-32(s0)
    50201672:	fc043603          	ld	a2,-64(s0)
    50201676:	fc843583          	ld	a1,-56(s0)
    5020167a:	fd043503          	ld	a0,-48(s0)
    5020167e:	9782                	jalr	a5
    50201680:	87aa                	mv	a5,a0
    50201682:	853e                	mv	a0,a5
    50201684:	70e2                	ld	ra,56(sp)
    50201686:	7442                	ld	s0,48(sp)
    50201688:	6121                	addi	sp,sp,64
    5020168a:	8082                	ret

000000005020168c <bios_sdread>:
    5020168c:	1101                	addi	sp,sp,-32
    5020168e:	ec06                	sd	ra,24(sp)
    50201690:	e822                	sd	s0,16(sp)
    50201692:	1000                	addi	s0,sp,32
    50201694:	87aa                	mv	a5,a0
    50201696:	86ae                	mv	a3,a1
    50201698:	8732                	mv	a4,a2
    5020169a:	fef42623          	sw	a5,-20(s0)
    5020169e:	87b6                	mv	a5,a3
    502016a0:	fef42423          	sw	a5,-24(s0)
    502016a4:	87ba                	mv	a5,a4
    502016a6:	fef42223          	sw	a5,-28(s0)
    502016aa:	fec46783          	lwu	a5,-20(s0)
    502016ae:	fe846703          	lwu	a4,-24(s0)
    502016b2:	fe446683          	lwu	a3,-28(s0)
    502016b6:	863a                	mv	a2,a4
    502016b8:	85be                	mv	a1,a5
    502016ba:	450d                	li	a0,3
    502016bc:	f7fff0ef          	jal	ra,5020163a <call_jmptab>
    502016c0:	87aa                	mv	a5,a0
    502016c2:	2781                	sext.w	a5,a5
    502016c4:	853e                	mv	a0,a5
    502016c6:	60e2                	ld	ra,24(sp)
    502016c8:	6442                	ld	s0,16(sp)
    502016ca:	6105                	addi	sp,sp,32
    502016cc:	8082                	ret

00000000502016ce <load_img>:
    502016ce:	715d                	addi	sp,sp,-80
    502016d0:	e486                	sd	ra,72(sp)
    502016d2:	e0a2                	sd	s0,64(sp)
    502016d4:	0880                	addi	s0,sp,80
    502016d6:	fca43423          	sd	a0,-56(s0)
    502016da:	fcb43023          	sd	a1,-64(s0)
    502016de:	87b2                	mv	a5,a2
    502016e0:	8736                	mv	a4,a3
    502016e2:	faf42e23          	sw	a5,-68(s0)
    502016e6:	87ba                	mv	a5,a4
    502016e8:	faf42c23          	sw	a5,-72(s0)
    502016ec:	fc043783          	ld	a5,-64(s0)
    502016f0:	83a5                	srli	a5,a5,0x9
    502016f2:	fef42623          	sw	a5,-20(s0)
    502016f6:	fc043783          	ld	a5,-64(s0)
    502016fa:	2781                	sext.w	a5,a5
    502016fc:	1ff7f793          	andi	a5,a5,511
    50201700:	fef42423          	sw	a5,-24(s0)
    50201704:	fbc42783          	lw	a5,-68(s0)
    50201708:	873e                	mv	a4,a5
    5020170a:	fe842783          	lw	a5,-24(s0)
    5020170e:	9fb9                	addw	a5,a5,a4
    50201710:	2781                	sext.w	a5,a5
    50201712:	0097d79b          	srliw	a5,a5,0x9
    50201716:	0007871b          	sext.w	a4,a5
    5020171a:	fbc42783          	lw	a5,-68(s0)
    5020171e:	86be                	mv	a3,a5
    50201720:	fe842783          	lw	a5,-24(s0)
    50201724:	9fb5                	addw	a5,a5,a3
    50201726:	2781                	sext.w	a5,a5
    50201728:	1ff7f793          	andi	a5,a5,511
    5020172c:	2781                	sext.w	a5,a5
    5020172e:	c399                	beqz	a5,50201734 <load_img+0x66>
    50201730:	4785                	li	a5,1
    50201732:	a011                	j	50201736 <load_img+0x68>
    50201734:	4781                	li	a5,0
    50201736:	9fb9                	addw	a5,a5,a4
    50201738:	fef42223          	sw	a5,-28(s0)
    5020173c:	fc843783          	ld	a5,-56(s0)
    50201740:	2781                	sext.w	a5,a5
    50201742:	fec42683          	lw	a3,-20(s0)
    50201746:	fe442703          	lw	a4,-28(s0)
    5020174a:	8636                	mv	a2,a3
    5020174c:	85ba                	mv	a1,a4
    5020174e:	853e                	mv	a0,a5
    50201750:	f3dff0ef          	jal	ra,5020168c <bios_sdread>
    50201754:	87aa                	mv	a5,a0
    50201756:	c399                	beqz	a5,5020175c <load_img+0x8e>
    50201758:	4781                	li	a5,0
    5020175a:	a089                	j	5020179c <load_img+0xce>
    5020175c:	fb842783          	lw	a5,-72(s0)
    50201760:	2781                	sext.w	a5,a5
    50201762:	cb85                	beqz	a5,50201792 <load_img+0xc4>
    50201764:	fe846703          	lwu	a4,-24(s0)
    50201768:	fc843783          	ld	a5,-56(s0)
    5020176c:	97ba                	add	a5,a5,a4
    5020176e:	fcf43c23          	sd	a5,-40(s0)
    50201772:	fc843783          	ld	a5,-56(s0)
    50201776:	fcf43823          	sd	a5,-48(s0)
    5020177a:	fbc42783          	lw	a5,-68(s0)
    5020177e:	863e                	mv	a2,a5
    50201780:	fd843583          	ld	a1,-40(s0)
    50201784:	fd043503          	ld	a0,-48(s0)
    50201788:	4d2000ef          	jal	ra,50201c5a <memcpy>
    5020178c:	fc843783          	ld	a5,-56(s0)
    50201790:	a031                	j	5020179c <load_img+0xce>
    50201792:	fe846703          	lwu	a4,-24(s0)
    50201796:	fc843783          	ld	a5,-56(s0)
    5020179a:	97ba                	add	a5,a5,a4
    5020179c:	853e                	mv	a0,a5
    5020179e:	60a6                	ld	ra,72(sp)
    502017a0:	6406                	ld	s0,64(sp)
    502017a2:	6161                	addi	sp,sp,80
    502017a4:	8082                	ret

00000000502017a6 <load_task_img>:
    502017a6:	715d                	addi	sp,sp,-80
    502017a8:	e486                	sd	ra,72(sp)
    502017aa:	e0a2                	sd	s0,64(sp)
    502017ac:	0880                	addi	s0,sp,80
    502017ae:	87aa                	mv	a5,a0
    502017b0:	faf42e23          	sw	a5,-68(s0)
    502017b4:	00001697          	auipc	a3,0x1
    502017b8:	fbc68693          	addi	a3,a3,-68 # 50202770 <tasks>
    502017bc:	fbc42703          	lw	a4,-68(s0)
    502017c0:	87ba                	mv	a5,a4
    502017c2:	0786                	slli	a5,a5,0x1
    502017c4:	97ba                	add	a5,a5,a4
    502017c6:	0792                	slli	a5,a5,0x4
    502017c8:	97b6                	add	a5,a5,a3
    502017ca:	6388                	ld	a0,0(a5)
    502017cc:	678c                	ld	a1,8(a5)
    502017ce:	6b90                	ld	a2,16(a5)
    502017d0:	6f94                	ld	a3,24(a5)
    502017d2:	7398                	ld	a4,32(a5)
    502017d4:	779c                	ld	a5,40(a5)
    502017d6:	fca43023          	sd	a0,-64(s0)
    502017da:	fcb43423          	sd	a1,-56(s0)
    502017de:	fcc43823          	sd	a2,-48(s0)
    502017e2:	fcd43c23          	sd	a3,-40(s0)
    502017e6:	fee43023          	sd	a4,-32(s0)
    502017ea:	fef43423          	sd	a5,-24(s0)
    502017ee:	fe043783          	ld	a5,-32(s0)
    502017f2:	fec42703          	lw	a4,-20(s0)
    502017f6:	85ba                	mv	a1,a4
    502017f8:	fe842703          	lw	a4,-24(s0)
    502017fc:	2701                	sext.w	a4,a4
    502017fe:	4685                	li	a3,1
    50201800:	863a                	mv	a2,a4
    50201802:	853e                	mv	a0,a5
    50201804:	ecbff0ef          	jal	ra,502016ce <load_img>
    50201808:	87aa                	mv	a5,a0
    5020180a:	853e                	mv	a0,a5
    5020180c:	60a6                	ld	ra,72(sp)
    5020180e:	6406                	ld	s0,64(sp)
    50201810:	6161                	addi	sp,sp,80
    50201812:	8082                	ret

0000000050201814 <call_jmptab>:
    50201814:	7139                	addi	sp,sp,-64
    50201816:	fc06                	sd	ra,56(sp)
    50201818:	f822                	sd	s0,48(sp)
    5020181a:	0080                	addi	s0,sp,64
    5020181c:	fca43c23          	sd	a0,-40(s0)
    50201820:	fcb43823          	sd	a1,-48(s0)
    50201824:	fcc43423          	sd	a2,-56(s0)
    50201828:	fcd43023          	sd	a3,-64(s0)
    5020182c:	fd843703          	ld	a4,-40(s0)
    50201830:	0a4007b7          	lui	a5,0xa400
    50201834:	1781                	addi	a5,a5,-32
    50201836:	97ba                	add	a5,a5,a4
    50201838:	078e                	slli	a5,a5,0x3
    5020183a:	639c                	ld	a5,0(a5)
    5020183c:	fef43423          	sd	a5,-24(s0)
    50201840:	fe843783          	ld	a5,-24(s0)
    50201844:	fef43023          	sd	a5,-32(s0)
    50201848:	fe043783          	ld	a5,-32(s0)
    5020184c:	fc043603          	ld	a2,-64(s0)
    50201850:	fc843583          	ld	a1,-56(s0)
    50201854:	fd043503          	ld	a0,-48(s0)
    50201858:	9782                	jalr	a5
    5020185a:	87aa                	mv	a5,a0
    5020185c:	853e                	mv	a0,a5
    5020185e:	70e2                	ld	ra,56(sp)
    50201860:	7442                	ld	s0,48(sp)
    50201862:	6121                	addi	sp,sp,64
    50201864:	8082                	ret

0000000050201866 <bios_putstr>:
    50201866:	1101                	addi	sp,sp,-32
    50201868:	ec06                	sd	ra,24(sp)
    5020186a:	e822                	sd	s0,16(sp)
    5020186c:	1000                	addi	s0,sp,32
    5020186e:	fea43423          	sd	a0,-24(s0)
    50201872:	fe843783          	ld	a5,-24(s0)
    50201876:	4681                	li	a3,0
    50201878:	4601                	li	a2,0
    5020187a:	85be                	mv	a1,a5
    5020187c:	4501                	li	a0,0
    5020187e:	f97ff0ef          	jal	ra,50201814 <call_jmptab>
    50201882:	0001                	nop
    50201884:	60e2                	ld	ra,24(sp)
    50201886:	6442                	ld	s0,16(sp)
    50201888:	6105                	addi	sp,sp,32
    5020188a:	8082                	ret

000000005020188c <bios_putchar>:
    5020188c:	1101                	addi	sp,sp,-32
    5020188e:	ec06                	sd	ra,24(sp)
    50201890:	e822                	sd	s0,16(sp)
    50201892:	1000                	addi	s0,sp,32
    50201894:	87aa                	mv	a5,a0
    50201896:	fef42623          	sw	a5,-20(s0)
    5020189a:	fec42783          	lw	a5,-20(s0)
    5020189e:	4681                	li	a3,0
    502018a0:	4601                	li	a2,0
    502018a2:	85be                	mv	a1,a5
    502018a4:	4505                	li	a0,1
    502018a6:	f6fff0ef          	jal	ra,50201814 <call_jmptab>
    502018aa:	0001                	nop
    502018ac:	60e2                	ld	ra,24(sp)
    502018ae:	6442                	ld	s0,16(sp)
    502018b0:	6105                	addi	sp,sp,32
    502018b2:	8082                	ret

00000000502018b4 <bios_getchar>:
    502018b4:	1141                	addi	sp,sp,-16
    502018b6:	e406                	sd	ra,8(sp)
    502018b8:	e022                	sd	s0,0(sp)
    502018ba:	0800                	addi	s0,sp,16
    502018bc:	4681                	li	a3,0
    502018be:	4601                	li	a2,0
    502018c0:	4581                	li	a1,0
    502018c2:	4509                	li	a0,2
    502018c4:	f51ff0ef          	jal	ra,50201814 <call_jmptab>
    502018c8:	87aa                	mv	a5,a0
    502018ca:	2781                	sext.w	a5,a5
    502018cc:	853e                	mv	a0,a5
    502018ce:	60a2                	ld	ra,8(sp)
    502018d0:	6402                	ld	s0,0(sp)
    502018d2:	0141                	addi	sp,sp,16
    502018d4:	8082                	ret

00000000502018d6 <console_getchar>:
    502018d6:	1101                	addi	sp,sp,-32
    502018d8:	ec06                	sd	ra,24(sp)
    502018da:	e822                	sd	s0,16(sp)
    502018dc:	1000                	addi	s0,sp,32
    502018de:	0001                	nop
    502018e0:	fd5ff0ef          	jal	ra,502018b4 <bios_getchar>
    502018e4:	87aa                	mv	a5,a0
    502018e6:	fef42623          	sw	a5,-20(s0)
    502018ea:	fec42783          	lw	a5,-20(s0)
    502018ee:	0007871b          	sext.w	a4,a5
    502018f2:	57fd                	li	a5,-1
    502018f4:	fef706e3          	beq	a4,a5,502018e0 <console_getchar+0xa>
    502018f8:	fec42783          	lw	a5,-20(s0)
    502018fc:	0ff7f793          	zext.b	a5,a5
    50201900:	853e                	mv	a0,a5
    50201902:	60e2                	ld	ra,24(sp)
    50201904:	6442                	ld	s0,16(sp)
    50201906:	6105                	addi	sp,sp,32
    50201908:	8082                	ret

000000005020190a <CONSOLE_GETPRINT>:
    5020190a:	7179                	addi	sp,sp,-48
    5020190c:	f406                	sd	ra,40(sp)
    5020190e:	f022                	sd	s0,32(sp)
    50201910:	1800                	addi	s0,sp,48
    50201912:	87aa                	mv	a5,a0
    50201914:	fcf42e23          	sw	a5,-36(s0)
    50201918:	fbfff0ef          	jal	ra,502018d6 <console_getchar>
    5020191c:	87aa                	mv	a5,a0
    5020191e:	fef407a3          	sb	a5,-17(s0)
    50201922:	fef44783          	lbu	a5,-17(s0)
    50201926:	2781                	sext.w	a5,a5
    50201928:	86be                	mv	a3,a5
    5020192a:	07f00713          	li	a4,127
    5020192e:	02e68863          	beq	a3,a4,5020195e <CONSOLE_GETPRINT+0x54>
    50201932:	86be                	mv	a3,a5
    50201934:	07f00713          	li	a4,127
    50201938:	04d74c63          	blt	a4,a3,50201990 <CONSOLE_GETPRINT+0x86>
    5020193c:	86be                	mv	a3,a5
    5020193e:	4735                	li	a4,13
    50201940:	02e68e63          	beq	a3,a4,5020197c <CONSOLE_GETPRINT+0x72>
    50201944:	86be                	mv	a3,a5
    50201946:	4735                	li	a4,13
    50201948:	04d74463          	blt	a4,a3,50201990 <CONSOLE_GETPRINT+0x86>
    5020194c:	86be                	mv	a3,a5
    5020194e:	4721                	li	a4,8
    50201950:	00e68763          	beq	a3,a4,5020195e <CONSOLE_GETPRINT+0x54>
    50201954:	873e                	mv	a4,a5
    50201956:	47a9                	li	a5,10
    50201958:	02f70263          	beq	a4,a5,5020197c <CONSOLE_GETPRINT+0x72>
    5020195c:	a815                	j	50201990 <CONSOLE_GETPRINT+0x86>
    5020195e:	fdc42783          	lw	a5,-36(s0)
    50201962:	2781                	sext.w	a5,a5
    50201964:	c799                	beqz	a5,50201972 <CONSOLE_GETPRINT+0x68>
    50201966:	00001517          	auipc	a0,0x1
    5020196a:	d4250513          	addi	a0,a0,-702 # 502026a8 <z_st+0x49e>
    5020196e:	ef9ff0ef          	jal	ra,50201866 <bios_putstr>
    50201972:	07f00793          	li	a5,127
    50201976:	fef407a3          	sb	a5,-17(s0)
    5020197a:	a00d                	j	5020199c <CONSOLE_GETPRINT+0x92>
    5020197c:	00001517          	auipc	a0,0x1
    50201980:	d3450513          	addi	a0,a0,-716 # 502026b0 <z_st+0x4a6>
    50201984:	ee3ff0ef          	jal	ra,50201866 <bios_putstr>
    50201988:	47a9                	li	a5,10
    5020198a:	fef407a3          	sb	a5,-17(s0)
    5020198e:	a039                	j	5020199c <CONSOLE_GETPRINT+0x92>
    50201990:	fef44783          	lbu	a5,-17(s0)
    50201994:	2781                	sext.w	a5,a5
    50201996:	853e                	mv	a0,a5
    50201998:	ef5ff0ef          	jal	ra,5020188c <bios_putchar>
    5020199c:	fef44783          	lbu	a5,-17(s0)
    502019a0:	853e                	mv	a0,a5
    502019a2:	70a2                	ld	ra,40(sp)
    502019a4:	7402                	ld	s0,32(sp)
    502019a6:	6145                	addi	sp,sp,48
    502019a8:	8082                	ret

00000000502019aa <CONSOLE_GETLINE>:
    502019aa:	7139                	addi	sp,sp,-64
    502019ac:	fc06                	sd	ra,56(sp)
    502019ae:	f822                	sd	s0,48(sp)
    502019b0:	f426                	sd	s1,40(sp)
    502019b2:	0080                	addi	s0,sp,64
    502019b4:	fca43423          	sd	a0,-56(s0)
    502019b8:	87ae                	mv	a5,a1
    502019ba:	fcf42223          	sw	a5,-60(s0)
    502019be:	fc042e23          	sw	zero,-36(s0)
    502019c2:	a82d                	j	502019fc <CONSOLE_GETLINE+0x52>
    502019c4:	fdc42783          	lw	a5,-36(s0)
    502019c8:	fc843703          	ld	a4,-56(s0)
    502019cc:	97ba                	add	a5,a5,a4
    502019ce:	0007c783          	lbu	a5,0(a5) # a400000 <_start-0x45e01000>
    502019d2:	873e                	mv	a4,a5
    502019d4:	07f00793          	li	a5,127
    502019d8:	00f71d63          	bne	a4,a5,502019f2 <CONSOLE_GETLINE+0x48>
    502019dc:	fdc42783          	lw	a5,-36(s0)
    502019e0:	2781                	sext.w	a5,a5
    502019e2:	00f05d63          	blez	a5,502019fc <CONSOLE_GETLINE+0x52>
    502019e6:	fdc42783          	lw	a5,-36(s0)
    502019ea:	37fd                	addiw	a5,a5,-1
    502019ec:	fcf42e23          	sw	a5,-36(s0)
    502019f0:	a031                	j	502019fc <CONSOLE_GETLINE+0x52>
    502019f2:	fdc42783          	lw	a5,-36(s0)
    502019f6:	2785                	addiw	a5,a5,1
    502019f8:	fcf42e23          	sw	a5,-36(s0)
    502019fc:	fdc42783          	lw	a5,-36(s0)
    50201a00:	2781                	sext.w	a5,a5
    50201a02:	00f027b3          	sgtz	a5,a5
    50201a06:	0ff7f793          	zext.b	a5,a5
    50201a0a:	0007869b          	sext.w	a3,a5
    50201a0e:	fdc42783          	lw	a5,-36(s0)
    50201a12:	fc843703          	ld	a4,-56(s0)
    50201a16:	00f704b3          	add	s1,a4,a5
    50201a1a:	8536                	mv	a0,a3
    50201a1c:	eefff0ef          	jal	ra,5020190a <CONSOLE_GETPRINT>
    50201a20:	87aa                	mv	a5,a0
    50201a22:	00f48023          	sb	a5,0(s1)
    50201a26:	0004c783          	lbu	a5,0(s1)
    50201a2a:	873e                	mv	a4,a5
    50201a2c:	47a9                	li	a5,10
    50201a2e:	00f70c63          	beq	a4,a5,50201a46 <CONSOLE_GETLINE+0x9c>
    50201a32:	fc442783          	lw	a5,-60(s0)
    50201a36:	37fd                	addiw	a5,a5,-1
    50201a38:	0007871b          	sext.w	a4,a5
    50201a3c:	fdc42783          	lw	a5,-36(s0)
    50201a40:	2781                	sext.w	a5,a5
    50201a42:	f8e7c1e3          	blt	a5,a4,502019c4 <CONSOLE_GETLINE+0x1a>
    50201a46:	fdc42783          	lw	a5,-36(s0)
    50201a4a:	fc843703          	ld	a4,-56(s0)
    50201a4e:	97ba                	add	a5,a5,a4
    50201a50:	00078023          	sb	zero,0(a5)
    50201a54:	fdc42783          	lw	a5,-36(s0)
    50201a58:	853e                	mv	a0,a5
    50201a5a:	70e2                	ld	ra,56(sp)
    50201a5c:	7442                	ld	s0,48(sp)
    50201a5e:	74a2                	ld	s1,40(sp)
    50201a60:	6121                	addi	sp,sp,64
    50201a62:	8082                	ret

0000000050201a64 <format>:
    50201a64:	7139                	addi	sp,sp,-64
    50201a66:	fc22                	sd	s0,56(sp)
    50201a68:	0080                	addi	s0,sp,64
    50201a6a:	fca43c23          	sd	a0,-40(s0)
    50201a6e:	fcb43823          	sd	a1,-48(s0)
    50201a72:	87b2                	mv	a5,a2
    50201a74:	fcd43023          	sd	a3,-64(s0)
    50201a78:	fcf42623          	sw	a5,-52(s0)
    50201a7c:	fe042623          	sw	zero,-20(s0)
    50201a80:	fe042423          	sw	zero,-24(s0)
    50201a84:	fe042223          	sw	zero,-28(s0)
    50201a88:	a0f1                	j	50201b54 <format+0xf0>
    50201a8a:	fe442783          	lw	a5,-28(s0)
    50201a8e:	fd843703          	ld	a4,-40(s0)
    50201a92:	97ba                	add	a5,a5,a4
    50201a94:	0007c703          	lbu	a4,0(a5)
    50201a98:	fd043783          	ld	a5,-48(s0)
    50201a9c:	00e78023          	sb	a4,0(a5)
    50201aa0:	fe842783          	lw	a5,-24(s0)
    50201aa4:	2781                	sext.w	a5,a5
    50201aa6:	e38d                	bnez	a5,50201ac8 <format+0x64>
    50201aa8:	fe442783          	lw	a5,-28(s0)
    50201aac:	fd843703          	ld	a4,-40(s0)
    50201ab0:	97ba                	add	a5,a5,a4
    50201ab2:	0007c783          	lbu	a5,0(a5)
    50201ab6:	873e                	mv	a4,a5
    50201ab8:	05c00793          	li	a5,92
    50201abc:	00f71663          	bne	a4,a5,50201ac8 <format+0x64>
    50201ac0:	4785                	li	a5,1
    50201ac2:	fef42423          	sw	a5,-24(s0)
    50201ac6:	a051                	j	50201b4a <format+0xe6>
    50201ac8:	fe842783          	lw	a5,-24(s0)
    50201acc:	2781                	sext.w	a5,a5
    50201ace:	e7bd                	bnez	a5,50201b3c <format+0xd8>
    50201ad0:	fe442783          	lw	a5,-28(s0)
    50201ad4:	fd843703          	ld	a4,-40(s0)
    50201ad8:	97ba                	add	a5,a5,a4
    50201ada:	0007c783          	lbu	a5,0(a5)
    50201ade:	873e                	mv	a4,a5
    50201ae0:	05f00793          	li	a5,95
    50201ae4:	04f71c63          	bne	a4,a5,50201b3c <format+0xd8>
    50201ae8:	fec42783          	lw	a5,-20(s0)
    50201aec:	2781                	sext.w	a5,a5
    50201aee:	e3a9                	bnez	a5,50201b30 <format+0xcc>
    50201af0:	fc043703          	ld	a4,-64(s0)
    50201af4:	00170793          	addi	a5,a4,1
    50201af8:	fcf43023          	sd	a5,-64(s0)
    50201afc:	fd043783          	ld	a5,-48(s0)
    50201b00:	00178693          	addi	a3,a5,1
    50201b04:	fcd43823          	sd	a3,-48(s0)
    50201b08:	00074703          	lbu	a4,0(a4)
    50201b0c:	00e78023          	sb	a4,0(a5)
    50201b10:	fc043783          	ld	a5,-64(s0)
    50201b14:	0007c783          	lbu	a5,0(a5)
    50201b18:	2781                	sext.w	a5,a5
    50201b1a:	0017b793          	seqz	a5,a5
    50201b1e:	0ff7f793          	zext.b	a5,a5
    50201b22:	2781                	sext.w	a5,a5
    50201b24:	fec42703          	lw	a4,-20(s0)
    50201b28:	9fb9                	addw	a5,a5,a4
    50201b2a:	fef42623          	sw	a5,-20(s0)
    50201b2e:	a831                	j	50201b4a <format+0xe6>
    50201b30:	fec42783          	lw	a5,-20(s0)
    50201b34:	2785                	addiw	a5,a5,1
    50201b36:	fef42623          	sw	a5,-20(s0)
    50201b3a:	a801                	j	50201b4a <format+0xe6>
    50201b3c:	fd043783          	ld	a5,-48(s0)
    50201b40:	0785                	addi	a5,a5,1
    50201b42:	fcf43823          	sd	a5,-48(s0)
    50201b46:	fe042423          	sw	zero,-24(s0)
    50201b4a:	fe442783          	lw	a5,-28(s0)
    50201b4e:	2785                	addiw	a5,a5,1
    50201b50:	fef42223          	sw	a5,-28(s0)
    50201b54:	fe442783          	lw	a5,-28(s0)
    50201b58:	873e                	mv	a4,a5
    50201b5a:	fcc42783          	lw	a5,-52(s0)
    50201b5e:	2701                	sext.w	a4,a4
    50201b60:	2781                	sext.w	a5,a5
    50201b62:	f2f744e3          	blt	a4,a5,50201a8a <format+0x26>
    50201b66:	fcc42783          	lw	a5,-52(s0)
    50201b6a:	873e                	mv	a4,a5
    50201b6c:	fec42783          	lw	a5,-20(s0)
    50201b70:	40f707bb          	subw	a5,a4,a5
    50201b74:	2781                	sext.w	a5,a5
    50201b76:	853e                	mv	a0,a5
    50201b78:	7462                	ld	s0,56(sp)
    50201b7a:	6121                	addi	sp,sp,64
    50201b7c:	8082                	ret

0000000050201b7e <CONSOLE_PRINT>:
    50201b7e:	7175                	addi	sp,sp,-144
    50201b80:	e506                	sd	ra,136(sp)
    50201b82:	e122                	sd	s0,128(sp)
    50201b84:	fca6                	sd	s1,120(sp)
    50201b86:	f8ca                	sd	s2,112(sp)
    50201b88:	f4ce                	sd	s3,104(sp)
    50201b8a:	f0d2                	sd	s4,96(sp)
    50201b8c:	ecd6                	sd	s5,88(sp)
    50201b8e:	e8da                	sd	s6,80(sp)
    50201b90:	e4de                	sd	s7,72(sp)
    50201b92:	e0e2                	sd	s8,64(sp)
    50201b94:	fc66                	sd	s9,56(sp)
    50201b96:	0900                	addi	s0,sp,144
    50201b98:	f6a43c23          	sd	a0,-136(s0)
    50201b9c:	f6b43823          	sd	a1,-144(s0)
    50201ba0:	878a                	mv	a5,sp
    50201ba2:	84be                	mv	s1,a5
    50201ba4:	f7843503          	ld	a0,-136(s0)
    50201ba8:	182000ef          	jal	ra,50201d2a <strlen>
    50201bac:	87aa                	mv	a5,a0
    50201bae:	f8f42e23          	sw	a5,-100(s0)
    50201bb2:	f9c42783          	lw	a5,-100(s0)
    50201bb6:	2789                	addiw	a5,a5,2
    50201bb8:	2781                	sext.w	a5,a5
    50201bba:	873e                	mv	a4,a5
    50201bbc:	177d                	addi	a4,a4,-1
    50201bbe:	f8e43823          	sd	a4,-112(s0)
    50201bc2:	873e                	mv	a4,a5
    50201bc4:	8c3a                	mv	s8,a4
    50201bc6:	4c81                	li	s9,0
    50201bc8:	03dc5713          	srli	a4,s8,0x3d
    50201bcc:	003c9a93          	slli	s5,s9,0x3
    50201bd0:	01576ab3          	or	s5,a4,s5
    50201bd4:	003c1a13          	slli	s4,s8,0x3
    50201bd8:	873e                	mv	a4,a5
    50201bda:	8b3a                	mv	s6,a4
    50201bdc:	4b81                	li	s7,0
    50201bde:	03db5713          	srli	a4,s6,0x3d
    50201be2:	003b9993          	slli	s3,s7,0x3
    50201be6:	013769b3          	or	s3,a4,s3
    50201bea:	003b1913          	slli	s2,s6,0x3
    50201bee:	07bd                	addi	a5,a5,15
    50201bf0:	8391                	srli	a5,a5,0x4
    50201bf2:	0792                	slli	a5,a5,0x4
    50201bf4:	40f10133          	sub	sp,sp,a5
    50201bf8:	878a                	mv	a5,sp
    50201bfa:	00078793          	mv	a5,a5
    50201bfe:	f8f43423          	sd	a5,-120(s0)
    50201c02:	f9c42783          	lw	a5,-100(s0)
    50201c06:	f7043683          	ld	a3,-144(s0)
    50201c0a:	863e                	mv	a2,a5
    50201c0c:	f8843583          	ld	a1,-120(s0)
    50201c10:	f7843503          	ld	a0,-136(s0)
    50201c14:	e51ff0ef          	jal	ra,50201a64 <format>
    50201c18:	87aa                	mv	a5,a0
    50201c1a:	f8f42e23          	sw	a5,-100(s0)
    50201c1e:	f9c42783          	lw	a5,-100(s0)
    50201c22:	2785                	addiw	a5,a5,1
    50201c24:	2781                	sext.w	a5,a5
    50201c26:	f8843703          	ld	a4,-120(s0)
    50201c2a:	97ba                	add	a5,a5,a4
    50201c2c:	00078023          	sb	zero,0(a5)
    50201c30:	f8843503          	ld	a0,-120(s0)
    50201c34:	c33ff0ef          	jal	ra,50201866 <bios_putstr>
    50201c38:	8126                	mv	sp,s1
    50201c3a:	0001                	nop
    50201c3c:	f7040113          	addi	sp,s0,-144
    50201c40:	60aa                	ld	ra,136(sp)
    50201c42:	640a                	ld	s0,128(sp)
    50201c44:	74e6                	ld	s1,120(sp)
    50201c46:	7946                	ld	s2,112(sp)
    50201c48:	79a6                	ld	s3,104(sp)
    50201c4a:	7a06                	ld	s4,96(sp)
    50201c4c:	6ae6                	ld	s5,88(sp)
    50201c4e:	6b46                	ld	s6,80(sp)
    50201c50:	6ba6                	ld	s7,72(sp)
    50201c52:	6c06                	ld	s8,64(sp)
    50201c54:	7ce2                	ld	s9,56(sp)
    50201c56:	6149                	addi	sp,sp,144
    50201c58:	8082                	ret

0000000050201c5a <memcpy>:
    50201c5a:	7179                	addi	sp,sp,-48
    50201c5c:	f422                	sd	s0,40(sp)
    50201c5e:	1800                	addi	s0,sp,48
    50201c60:	fea43423          	sd	a0,-24(s0)
    50201c64:	feb43023          	sd	a1,-32(s0)
    50201c68:	87b2                	mv	a5,a2
    50201c6a:	fcf42e23          	sw	a5,-36(s0)
    50201c6e:	a035                	j	50201c9a <memcpy+0x40>
    50201c70:	fe043703          	ld	a4,-32(s0)
    50201c74:	00170793          	addi	a5,a4,1
    50201c78:	fef43023          	sd	a5,-32(s0)
    50201c7c:	fe843783          	ld	a5,-24(s0)
    50201c80:	00178693          	addi	a3,a5,1
    50201c84:	fed43423          	sd	a3,-24(s0)
    50201c88:	00074703          	lbu	a4,0(a4)
    50201c8c:	00e78023          	sb	a4,0(a5)
    50201c90:	fdc42783          	lw	a5,-36(s0)
    50201c94:	37fd                	addiw	a5,a5,-1
    50201c96:	fcf42e23          	sw	a5,-36(s0)
    50201c9a:	fdc42783          	lw	a5,-36(s0)
    50201c9e:	2781                	sext.w	a5,a5
    50201ca0:	fbe1                	bnez	a5,50201c70 <memcpy+0x16>
    50201ca2:	0001                	nop
    50201ca4:	0001                	nop
    50201ca6:	7422                	ld	s0,40(sp)
    50201ca8:	6145                	addi	sp,sp,48
    50201caa:	8082                	ret

0000000050201cac <memset>:
    50201cac:	7179                	addi	sp,sp,-48
    50201cae:	f422                	sd	s0,40(sp)
    50201cb0:	1800                	addi	s0,sp,48
    50201cb2:	fca43c23          	sd	a0,-40(s0)
    50201cb6:	87ae                	mv	a5,a1
    50201cb8:	8732                	mv	a4,a2
    50201cba:	fcf40ba3          	sb	a5,-41(s0)
    50201cbe:	87ba                	mv	a5,a4
    50201cc0:	fcf42823          	sw	a5,-48(s0)
    50201cc4:	fd843783          	ld	a5,-40(s0)
    50201cc8:	fef43423          	sd	a5,-24(s0)
    50201ccc:	a005                	j	50201cec <memset+0x40>
    50201cce:	fe843783          	ld	a5,-24(s0)
    50201cd2:	00178713          	addi	a4,a5,1
    50201cd6:	fee43423          	sd	a4,-24(s0)
    50201cda:	fd744703          	lbu	a4,-41(s0)
    50201cde:	00e78023          	sb	a4,0(a5)
    50201ce2:	fd042783          	lw	a5,-48(s0)
    50201ce6:	37fd                	addiw	a5,a5,-1
    50201ce8:	fcf42823          	sw	a5,-48(s0)
    50201cec:	fd042783          	lw	a5,-48(s0)
    50201cf0:	2781                	sext.w	a5,a5
    50201cf2:	fff1                	bnez	a5,50201cce <memset+0x22>
    50201cf4:	0001                	nop
    50201cf6:	0001                	nop
    50201cf8:	7422                	ld	s0,40(sp)
    50201cfa:	6145                	addi	sp,sp,48
    50201cfc:	8082                	ret

0000000050201cfe <bzero>:
    50201cfe:	1101                	addi	sp,sp,-32
    50201d00:	ec06                	sd	ra,24(sp)
    50201d02:	e822                	sd	s0,16(sp)
    50201d04:	1000                	addi	s0,sp,32
    50201d06:	fea43423          	sd	a0,-24(s0)
    50201d0a:	87ae                	mv	a5,a1
    50201d0c:	fef42223          	sw	a5,-28(s0)
    50201d10:	fe442783          	lw	a5,-28(s0)
    50201d14:	863e                	mv	a2,a5
    50201d16:	4581                	li	a1,0
    50201d18:	fe843503          	ld	a0,-24(s0)
    50201d1c:	f91ff0ef          	jal	ra,50201cac <memset>
    50201d20:	0001                	nop
    50201d22:	60e2                	ld	ra,24(sp)
    50201d24:	6442                	ld	s0,16(sp)
    50201d26:	6105                	addi	sp,sp,32
    50201d28:	8082                	ret

0000000050201d2a <strlen>:
    50201d2a:	7179                	addi	sp,sp,-48
    50201d2c:	f422                	sd	s0,40(sp)
    50201d2e:	1800                	addi	s0,sp,48
    50201d30:	fca43c23          	sd	a0,-40(s0)
    50201d34:	fe042623          	sw	zero,-20(s0)
    50201d38:	a031                	j	50201d44 <strlen+0x1a>
    50201d3a:	fec42783          	lw	a5,-20(s0)
    50201d3e:	2785                	addiw	a5,a5,1
    50201d40:	fef42623          	sw	a5,-20(s0)
    50201d44:	fec42783          	lw	a5,-20(s0)
    50201d48:	fd843703          	ld	a4,-40(s0)
    50201d4c:	97ba                	add	a5,a5,a4
    50201d4e:	0007c783          	lbu	a5,0(a5)
    50201d52:	f7e5                	bnez	a5,50201d3a <strlen+0x10>
    50201d54:	fec42783          	lw	a5,-20(s0)
    50201d58:	853e                	mv	a0,a5
    50201d5a:	7422                	ld	s0,40(sp)
    50201d5c:	6145                	addi	sp,sp,48
    50201d5e:	8082                	ret

0000000050201d60 <strcmp>:
    50201d60:	1101                	addi	sp,sp,-32
    50201d62:	ec22                	sd	s0,24(sp)
    50201d64:	1000                	addi	s0,sp,32
    50201d66:	fea43423          	sd	a0,-24(s0)
    50201d6a:	feb43023          	sd	a1,-32(s0)
    50201d6e:	a0a1                	j	50201db6 <strcmp+0x56>
    50201d70:	fe843783          	ld	a5,-24(s0)
    50201d74:	0007c703          	lbu	a4,0(a5)
    50201d78:	fe043783          	ld	a5,-32(s0)
    50201d7c:	0007c783          	lbu	a5,0(a5)
    50201d80:	02f70163          	beq	a4,a5,50201da2 <strcmp+0x42>
    50201d84:	fe843783          	ld	a5,-24(s0)
    50201d88:	0007c783          	lbu	a5,0(a5)
    50201d8c:	0007871b          	sext.w	a4,a5
    50201d90:	fe043783          	ld	a5,-32(s0)
    50201d94:	0007c783          	lbu	a5,0(a5)
    50201d98:	2781                	sext.w	a5,a5
    50201d9a:	40f707bb          	subw	a5,a4,a5
    50201d9e:	2781                	sext.w	a5,a5
    50201da0:	a099                	j	50201de6 <strcmp+0x86>
    50201da2:	fe843783          	ld	a5,-24(s0)
    50201da6:	0785                	addi	a5,a5,1
    50201da8:	fef43423          	sd	a5,-24(s0)
    50201dac:	fe043783          	ld	a5,-32(s0)
    50201db0:	0785                	addi	a5,a5,1
    50201db2:	fef43023          	sd	a5,-32(s0)
    50201db6:	fe843783          	ld	a5,-24(s0)
    50201dba:	0007c783          	lbu	a5,0(a5)
    50201dbe:	c791                	beqz	a5,50201dca <strcmp+0x6a>
    50201dc0:	fe043783          	ld	a5,-32(s0)
    50201dc4:	0007c783          	lbu	a5,0(a5)
    50201dc8:	f7c5                	bnez	a5,50201d70 <strcmp+0x10>
    50201dca:	fe843783          	ld	a5,-24(s0)
    50201dce:	0007c783          	lbu	a5,0(a5)
    50201dd2:	0007871b          	sext.w	a4,a5
    50201dd6:	fe043783          	ld	a5,-32(s0)
    50201dda:	0007c783          	lbu	a5,0(a5)
    50201dde:	2781                	sext.w	a5,a5
    50201de0:	40f707bb          	subw	a5,a4,a5
    50201de4:	2781                	sext.w	a5,a5
    50201de6:	853e                	mv	a0,a5
    50201de8:	6462                	ld	s0,24(sp)
    50201dea:	6105                	addi	sp,sp,32
    50201dec:	8082                	ret

0000000050201dee <strncmp>:
    50201dee:	7179                	addi	sp,sp,-48
    50201df0:	f422                	sd	s0,40(sp)
    50201df2:	1800                	addi	s0,sp,48
    50201df4:	fea43423          	sd	a0,-24(s0)
    50201df8:	feb43023          	sd	a1,-32(s0)
    50201dfc:	87b2                	mv	a5,a2
    50201dfe:	fcf42e23          	sw	a5,-36(s0)
    50201e02:	a0a1                	j	50201e4a <strncmp+0x5c>
    50201e04:	fe843783          	ld	a5,-24(s0)
    50201e08:	0007c703          	lbu	a4,0(a5)
    50201e0c:	fe043783          	ld	a5,-32(s0)
    50201e10:	0007c783          	lbu	a5,0(a5)
    50201e14:	02f70163          	beq	a4,a5,50201e36 <strncmp+0x48>
    50201e18:	fe843783          	ld	a5,-24(s0)
    50201e1c:	0007c783          	lbu	a5,0(a5)
    50201e20:	0007871b          	sext.w	a4,a5
    50201e24:	fe043783          	ld	a5,-32(s0)
    50201e28:	0007c783          	lbu	a5,0(a5)
    50201e2c:	2781                	sext.w	a5,a5
    50201e2e:	40f707bb          	subw	a5,a4,a5
    50201e32:	2781                	sext.w	a5,a5
    50201e34:	a899                	j	50201e8a <strncmp+0x9c>
    50201e36:	fe843783          	ld	a5,-24(s0)
    50201e3a:	0785                	addi	a5,a5,1
    50201e3c:	fef43423          	sd	a5,-24(s0)
    50201e40:	fe043783          	ld	a5,-32(s0)
    50201e44:	0785                	addi	a5,a5,1
    50201e46:	fef43023          	sd	a5,-32(s0)
    50201e4a:	fe843783          	ld	a5,-24(s0)
    50201e4e:	0007c783          	lbu	a5,0(a5)
    50201e52:	cf91                	beqz	a5,50201e6e <strncmp+0x80>
    50201e54:	fe043783          	ld	a5,-32(s0)
    50201e58:	0007c783          	lbu	a5,0(a5)
    50201e5c:	cb89                	beqz	a5,50201e6e <strncmp+0x80>
    50201e5e:	fdc42783          	lw	a5,-36(s0)
    50201e62:	fff7871b          	addiw	a4,a5,-1
    50201e66:	fce42e23          	sw	a4,-36(s0)
    50201e6a:	f8f04de3          	bgtz	a5,50201e04 <strncmp+0x16>
    50201e6e:	fe843783          	ld	a5,-24(s0)
    50201e72:	0007c783          	lbu	a5,0(a5)
    50201e76:	0007871b          	sext.w	a4,a5
    50201e7a:	fe043783          	ld	a5,-32(s0)
    50201e7e:	0007c783          	lbu	a5,0(a5)
    50201e82:	2781                	sext.w	a5,a5
    50201e84:	40f707bb          	subw	a5,a4,a5
    50201e88:	2781                	sext.w	a5,a5
    50201e8a:	853e                	mv	a0,a5
    50201e8c:	7422                	ld	s0,40(sp)
    50201e8e:	6145                	addi	sp,sp,48
    50201e90:	8082                	ret

0000000050201e92 <strcpy>:
    50201e92:	7179                	addi	sp,sp,-48
    50201e94:	f422                	sd	s0,40(sp)
    50201e96:	1800                	addi	s0,sp,48
    50201e98:	fca43c23          	sd	a0,-40(s0)
    50201e9c:	fcb43823          	sd	a1,-48(s0)
    50201ea0:	fd843783          	ld	a5,-40(s0)
    50201ea4:	fef43423          	sd	a5,-24(s0)
    50201ea8:	a00d                	j	50201eca <strcpy+0x38>
    50201eaa:	fd043703          	ld	a4,-48(s0)
    50201eae:	00170793          	addi	a5,a4,1
    50201eb2:	fcf43823          	sd	a5,-48(s0)
    50201eb6:	fd843783          	ld	a5,-40(s0)
    50201eba:	00178693          	addi	a3,a5,1
    50201ebe:	fcd43c23          	sd	a3,-40(s0)
    50201ec2:	00074703          	lbu	a4,0(a4)
    50201ec6:	00e78023          	sb	a4,0(a5)
    50201eca:	fd043783          	ld	a5,-48(s0)
    50201ece:	0007c783          	lbu	a5,0(a5)
    50201ed2:	ffe1                	bnez	a5,50201eaa <strcpy+0x18>
    50201ed4:	fd843783          	ld	a5,-40(s0)
    50201ed8:	00078023          	sb	zero,0(a5)
    50201edc:	fe843783          	ld	a5,-24(s0)
    50201ee0:	853e                	mv	a0,a5
    50201ee2:	7422                	ld	s0,40(sp)
    50201ee4:	6145                	addi	sp,sp,48
    50201ee6:	8082                	ret

0000000050201ee8 <strncpy>:
    50201ee8:	7139                	addi	sp,sp,-64
    50201eea:	fc22                	sd	s0,56(sp)
    50201eec:	0080                	addi	s0,sp,64
    50201eee:	fca43c23          	sd	a0,-40(s0)
    50201ef2:	fcb43823          	sd	a1,-48(s0)
    50201ef6:	87b2                	mv	a5,a2
    50201ef8:	fcf42623          	sw	a5,-52(s0)
    50201efc:	fd843783          	ld	a5,-40(s0)
    50201f00:	fef43423          	sd	a5,-24(s0)
    50201f04:	a00d                	j	50201f26 <strncpy+0x3e>
    50201f06:	fd043703          	ld	a4,-48(s0)
    50201f0a:	00170793          	addi	a5,a4,1
    50201f0e:	fcf43823          	sd	a5,-48(s0)
    50201f12:	fd843783          	ld	a5,-40(s0)
    50201f16:	00178693          	addi	a3,a5,1
    50201f1a:	fcd43c23          	sd	a3,-40(s0)
    50201f1e:	00074703          	lbu	a4,0(a4)
    50201f22:	00e78023          	sb	a4,0(a5)
    50201f26:	fd043783          	ld	a5,-48(s0)
    50201f2a:	0007c783          	lbu	a5,0(a5)
    50201f2e:	c395                	beqz	a5,50201f52 <strncpy+0x6a>
    50201f30:	fcc42783          	lw	a5,-52(s0)
    50201f34:	fff7871b          	addiw	a4,a5,-1
    50201f38:	fce42623          	sw	a4,-52(s0)
    50201f3c:	fcf045e3          	bgtz	a5,50201f06 <strncpy+0x1e>
    50201f40:	a809                	j	50201f52 <strncpy+0x6a>
    50201f42:	fd843783          	ld	a5,-40(s0)
    50201f46:	00178713          	addi	a4,a5,1
    50201f4a:	fce43c23          	sd	a4,-40(s0)
    50201f4e:	00078023          	sb	zero,0(a5)
    50201f52:	fcc42783          	lw	a5,-52(s0)
    50201f56:	fff7871b          	addiw	a4,a5,-1
    50201f5a:	fce42623          	sw	a4,-52(s0)
    50201f5e:	fef042e3          	bgtz	a5,50201f42 <strncpy+0x5a>
    50201f62:	fe843783          	ld	a5,-24(s0)
    50201f66:	853e                	mv	a0,a5
    50201f68:	7462                	ld	s0,56(sp)
    50201f6a:	6121                	addi	sp,sp,64
    50201f6c:	8082                	ret

0000000050201f6e <strcat>:
    50201f6e:	7179                	addi	sp,sp,-48
    50201f70:	f422                	sd	s0,40(sp)
    50201f72:	1800                	addi	s0,sp,48
    50201f74:	fca43c23          	sd	a0,-40(s0)
    50201f78:	fcb43823          	sd	a1,-48(s0)
    50201f7c:	fd843783          	ld	a5,-40(s0)
    50201f80:	fef43423          	sd	a5,-24(s0)
    50201f84:	a031                	j	50201f90 <strcat+0x22>
    50201f86:	fd843783          	ld	a5,-40(s0)
    50201f8a:	0785                	addi	a5,a5,1
    50201f8c:	fcf43c23          	sd	a5,-40(s0)
    50201f90:	fd843783          	ld	a5,-40(s0)
    50201f94:	0007c783          	lbu	a5,0(a5)
    50201f98:	f7fd                	bnez	a5,50201f86 <strcat+0x18>
    50201f9a:	a00d                	j	50201fbc <strcat+0x4e>
    50201f9c:	fd043703          	ld	a4,-48(s0)
    50201fa0:	00170793          	addi	a5,a4,1
    50201fa4:	fcf43823          	sd	a5,-48(s0)
    50201fa8:	fd843783          	ld	a5,-40(s0)
    50201fac:	00178693          	addi	a3,a5,1
    50201fb0:	fcd43c23          	sd	a3,-40(s0)
    50201fb4:	00074703          	lbu	a4,0(a4)
    50201fb8:	00e78023          	sb	a4,0(a5)
    50201fbc:	fd043783          	ld	a5,-48(s0)
    50201fc0:	0007c783          	lbu	a5,0(a5)
    50201fc4:	ffe1                	bnez	a5,50201f9c <strcat+0x2e>
    50201fc6:	fd843783          	ld	a5,-40(s0)
    50201fca:	00078023          	sb	zero,0(a5)
    50201fce:	fe843783          	ld	a5,-24(s0)
    50201fd2:	853e                	mv	a0,a5
    50201fd4:	7422                	ld	s0,40(sp)
    50201fd6:	6145                	addi	sp,sp,48
    50201fd8:	8082                	ret

0000000050201fda <get_taskid_by_name>:
    50201fda:	7179                	addi	sp,sp,-48
    50201fdc:	f406                	sd	ra,40(sp)
    50201fde:	f022                	sd	s0,32(sp)
    50201fe0:	1800                	addi	s0,sp,48
    50201fe2:	fca43c23          	sd	a0,-40(s0)
    50201fe6:	fe042623          	sw	zero,-20(s0)
    50201fea:	a81d                	j	50202020 <get_taskid_by_name+0x46>
    50201fec:	fec42703          	lw	a4,-20(s0)
    50201ff0:	87ba                	mv	a5,a4
    50201ff2:	0786                	slli	a5,a5,0x1
    50201ff4:	97ba                	add	a5,a5,a4
    50201ff6:	0792                	slli	a5,a5,0x4
    50201ff8:	00000717          	auipc	a4,0x0
    50201ffc:	77870713          	addi	a4,a4,1912 # 50202770 <tasks>
    50202000:	97ba                	add	a5,a5,a4
    50202002:	85be                	mv	a1,a5
    50202004:	fd843503          	ld	a0,-40(s0)
    50202008:	d59ff0ef          	jal	ra,50201d60 <strcmp>
    5020200c:	87aa                	mv	a5,a0
    5020200e:	e781                	bnez	a5,50202016 <get_taskid_by_name+0x3c>
    50202010:	fec42783          	lw	a5,-20(s0)
    50202014:	a025                	j	5020203c <get_taskid_by_name+0x62>
    50202016:	fec42783          	lw	a5,-20(s0)
    5020201a:	2785                	addiw	a5,a5,1
    5020201c:	fef42623          	sw	a5,-20(s0)
    50202020:	00000797          	auipc	a5,0x0
    50202024:	70c78793          	addi	a5,a5,1804 # 5020272c <tasknum>
    50202028:	00079783          	lh	a5,0(a5)
    5020202c:	0007871b          	sext.w	a4,a5
    50202030:	fec42783          	lw	a5,-20(s0)
    50202034:	2781                	sext.w	a5,a5
    50202036:	fae7cbe3          	blt	a5,a4,50201fec <get_taskid_by_name+0x12>
    5020203a:	57fd                	li	a5,-1
    5020203c:	853e                	mv	a0,a5
    5020203e:	70a2                	ld	ra,40(sp)
    50202040:	7402                	ld	s0,32(sp)
    50202042:	6145                	addi	sp,sp,48
    50202044:	8082                	ret

0000000050202046 <call_jmptab>:
    50202046:	7139                	addi	sp,sp,-64
    50202048:	fc06                	sd	ra,56(sp)
    5020204a:	f822                	sd	s0,48(sp)
    5020204c:	0080                	addi	s0,sp,64
    5020204e:	fca43c23          	sd	a0,-40(s0)
    50202052:	fcb43823          	sd	a1,-48(s0)
    50202056:	fcc43423          	sd	a2,-56(s0)
    5020205a:	fcd43023          	sd	a3,-64(s0)
    5020205e:	fd843703          	ld	a4,-40(s0)
    50202062:	0a4007b7          	lui	a5,0xa400
    50202066:	1781                	addi	a5,a5,-32
    50202068:	97ba                	add	a5,a5,a4
    5020206a:	078e                	slli	a5,a5,0x3
    5020206c:	639c                	ld	a5,0(a5)
    5020206e:	fef43423          	sd	a5,-24(s0)
    50202072:	fe843783          	ld	a5,-24(s0)
    50202076:	fef43023          	sd	a5,-32(s0)
    5020207a:	fe043783          	ld	a5,-32(s0)
    5020207e:	fc043603          	ld	a2,-64(s0)
    50202082:	fc843583          	ld	a1,-56(s0)
    50202086:	fd043503          	ld	a0,-48(s0)
    5020208a:	9782                	jalr	a5
    5020208c:	87aa                	mv	a5,a0
    5020208e:	853e                	mv	a0,a5
    50202090:	70e2                	ld	ra,56(sp)
    50202092:	7442                	ld	s0,48(sp)
    50202094:	6121                	addi	sp,sp,64
    50202096:	8082                	ret

0000000050202098 <bios_putstr>:
    50202098:	1101                	addi	sp,sp,-32
    5020209a:	ec06                	sd	ra,24(sp)
    5020209c:	e822                	sd	s0,16(sp)
    5020209e:	1000                	addi	s0,sp,32
    502020a0:	fea43423          	sd	a0,-24(s0)
    502020a4:	fe843783          	ld	a5,-24(s0)
    502020a8:	4681                	li	a3,0
    502020aa:	4601                	li	a2,0
    502020ac:	85be                	mv	a1,a5
    502020ae:	4501                	li	a0,0
    502020b0:	f97ff0ef          	jal	ra,50202046 <call_jmptab>
    502020b4:	0001                	nop
    502020b6:	60e2                	ld	ra,24(sp)
    502020b8:	6442                	ld	s0,16(sp)
    502020ba:	6105                	addi	sp,sp,32
    502020bc:	8082                	ret

00000000502020be <is_space>:
    502020be:	1101                	addi	sp,sp,-32
    502020c0:	ec22                	sd	s0,24(sp)
    502020c2:	1000                	addi	s0,sp,32
    502020c4:	87aa                	mv	a5,a0
    502020c6:	fef407a3          	sb	a5,-17(s0)
    502020ca:	fef44783          	lbu	a5,-17(s0)
    502020ce:	0ff7f713          	zext.b	a4,a5
    502020d2:	02000793          	li	a5,32
    502020d6:	00f70963          	beq	a4,a5,502020e8 <is_space+0x2a>
    502020da:	fef44783          	lbu	a5,-17(s0)
    502020de:	0ff7f713          	zext.b	a4,a5
    502020e2:	47a5                	li	a5,9
    502020e4:	00f71463          	bne	a4,a5,502020ec <is_space+0x2e>
    502020e8:	4785                	li	a5,1
    502020ea:	a011                	j	502020ee <is_space+0x30>
    502020ec:	4781                	li	a5,0
    502020ee:	853e                	mv	a0,a5
    502020f0:	6462                	ld	s0,24(sp)
    502020f2:	6105                	addi	sp,sp,32
    502020f4:	8082                	ret

00000000502020f6 <st_z>:
    502020f6:	7179                	addi	sp,sp,-48
    502020f8:	f406                	sd	ra,40(sp)
    502020fa:	f022                	sd	s0,32(sp)
    502020fc:	1800                	addi	s0,sp,48
    502020fe:	fca43c23          	sd	a0,-40(s0)
    50202102:	fd843503          	ld	a0,-40(s0)
    50202106:	c25ff0ef          	jal	ra,50201d2a <strlen>
    5020210a:	87aa                	mv	a5,a0
    5020210c:	fef42623          	sw	a5,-20(s0)
    50202110:	fe042423          	sw	zero,-24(s0)
    50202114:	fe042223          	sw	zero,-28(s0)
    50202118:	fe042023          	sw	zero,-32(s0)
    5020211c:	a031                	j	50202128 <st_z+0x32>
    5020211e:	fd843783          	ld	a5,-40(s0)
    50202122:	0785                	addi	a5,a5,1
    50202124:	fcf43c23          	sd	a5,-40(s0)
    50202128:	fd843783          	ld	a5,-40(s0)
    5020212c:	0007c783          	lbu	a5,0(a5) # a400000 <_start-0x45e01000>
    50202130:	853e                	mv	a0,a5
    50202132:	f8dff0ef          	jal	ra,502020be <is_space>
    50202136:	87aa                	mv	a5,a0
    50202138:	cb81                	beqz	a5,50202148 <st_z+0x52>
    5020213a:	fec42783          	lw	a5,-20(s0)
    5020213e:	fff7871b          	addiw	a4,a5,-1
    50202142:	fee42623          	sw	a4,-20(s0)
    50202146:	ffe1                	bnez	a5,5020211e <st_z+0x28>
    50202148:	fd843783          	ld	a5,-40(s0)
    5020214c:	0007c783          	lbu	a5,0(a5)
    50202150:	873e                	mv	a4,a5
    50202152:	02d00793          	li	a5,45
    50202156:	06f71863          	bne	a4,a5,502021c6 <st_z+0xd0>
    5020215a:	4785                	li	a5,1
    5020215c:	fef42223          	sw	a5,-28(s0)
    50202160:	a09d                	j	502021c6 <st_z+0xd0>
    50202162:	fd843783          	ld	a5,-40(s0)
    50202166:	0007c783          	lbu	a5,0(a5)
    5020216a:	873e                	mv	a4,a5
    5020216c:	02f00793          	li	a5,47
    50202170:	04e7f663          	bgeu	a5,a4,502021bc <st_z+0xc6>
    50202174:	fd843783          	ld	a5,-40(s0)
    50202178:	0007c783          	lbu	a5,0(a5)
    5020217c:	873e                	mv	a4,a5
    5020217e:	03900793          	li	a5,57
    50202182:	02e7ed63          	bltu	a5,a4,502021bc <st_z+0xc6>
    50202186:	fe842783          	lw	a5,-24(s0)
    5020218a:	873e                	mv	a4,a5
    5020218c:	87ba                	mv	a5,a4
    5020218e:	0027979b          	slliw	a5,a5,0x2
    50202192:	9fb9                	addw	a5,a5,a4
    50202194:	0017979b          	slliw	a5,a5,0x1
    50202198:	fef42423          	sw	a5,-24(s0)
    5020219c:	fd843783          	ld	a5,-40(s0)
    502021a0:	0007c783          	lbu	a5,0(a5)
    502021a4:	2781                	sext.w	a5,a5
    502021a6:	fd07879b          	addiw	a5,a5,-48
    502021aa:	2781                	sext.w	a5,a5
    502021ac:	fe842703          	lw	a4,-24(s0)
    502021b0:	9fb9                	addw	a5,a5,a4
    502021b2:	fef42423          	sw	a5,-24(s0)
    502021b6:	4785                	li	a5,1
    502021b8:	fef42023          	sw	a5,-32(s0)
    502021bc:	fd843783          	ld	a5,-40(s0)
    502021c0:	0785                	addi	a5,a5,1
    502021c2:	fcf43c23          	sd	a5,-40(s0)
    502021c6:	fec42783          	lw	a5,-20(s0)
    502021ca:	fff7871b          	addiw	a4,a5,-1
    502021ce:	fee42623          	sw	a4,-20(s0)
    502021d2:	fbc1                	bnez	a5,50202162 <st_z+0x6c>
    502021d4:	fe042783          	lw	a5,-32(s0)
    502021d8:	2781                	sext.w	a5,a5
    502021da:	e799                	bnez	a5,502021e8 <st_z+0xf2>
    502021dc:	00000517          	auipc	a0,0x0
    502021e0:	4dc50513          	addi	a0,a0,1244 # 502026b8 <z_st+0x4ae>
    502021e4:	eb5ff0ef          	jal	ra,50202098 <bios_putstr>
    502021e8:	fe442783          	lw	a5,-28(s0)
    502021ec:	2781                	sext.w	a5,a5
    502021ee:	c799                	beqz	a5,502021fc <st_z+0x106>
    502021f0:	fe842783          	lw	a5,-24(s0)
    502021f4:	40f007bb          	negw	a5,a5
    502021f8:	2781                	sext.w	a5,a5
    502021fa:	a019                	j	50202200 <st_z+0x10a>
    502021fc:	fe842783          	lw	a5,-24(s0)
    50202200:	853e                	mv	a0,a5
    50202202:	70a2                	ld	ra,40(sp)
    50202204:	7402                	ld	s0,32(sp)
    50202206:	6145                	addi	sp,sp,48
    50202208:	8082                	ret

000000005020220a <z_st>:
    5020220a:	7139                	addi	sp,sp,-64
    5020220c:	fc06                	sd	ra,56(sp)
    5020220e:	f822                	sd	s0,48(sp)
    50202210:	0080                	addi	s0,sp,64
    50202212:	87aa                	mv	a5,a0
    50202214:	fcc43823          	sd	a2,-48(s0)
    50202218:	fcf42e23          	sw	a5,-36(s0)
    5020221c:	87ae                	mv	a5,a1
    5020221e:	fcf42c23          	sw	a5,-40(s0)
    50202222:	87b6                	mv	a5,a3
    50202224:	fcf42623          	sw	a5,-52(s0)
    50202228:	87ba                	mv	a5,a4
    5020222a:	fcf42423          	sw	a5,-56(s0)
    5020222e:	fcc42783          	lw	a5,-52(s0)
    50202232:	0007871b          	sext.w	a4,a5
    50202236:	478d                	li	a5,3
    50202238:	00e7c963          	blt	a5,a4,5020224a <z_st+0x40>
    5020223c:	00000517          	auipc	a0,0x0
    50202240:	4ac50513          	addi	a0,a0,1196 # 502026e8 <z_st+0x4de>
    50202244:	e55ff0ef          	jal	ra,50202098 <bios_putstr>
    50202248:	acd1                	j	5020251c <z_st+0x312>
    5020224a:	fdc42783          	lw	a5,-36(s0)
    5020224e:	2781                	sext.w	a5,a5
    50202250:	0207d763          	bgez	a5,5020227e <z_st+0x74>
    50202254:	fd043783          	ld	a5,-48(s0)
    50202258:	00178713          	addi	a4,a5,1
    5020225c:	fce43823          	sd	a4,-48(s0)
    50202260:	02d00713          	li	a4,45
    50202264:	00e78023          	sb	a4,0(a5)
    50202268:	fcc42783          	lw	a5,-52(s0)
    5020226c:	37fd                	addiw	a5,a5,-1
    5020226e:	fcf42623          	sw	a5,-52(s0)
    50202272:	fdc42783          	lw	a5,-36(s0)
    50202276:	40f007bb          	negw	a5,a5
    5020227a:	fcf42e23          	sw	a5,-36(s0)
    5020227e:	fd842783          	lw	a5,-40(s0)
    50202282:	0007871b          	sext.w	a4,a5
    50202286:	47c1                	li	a5,16
    50202288:	0af70a63          	beq	a4,a5,5020233c <z_st+0x132>
    5020228c:	fd842783          	lw	a5,-40(s0)
    50202290:	0007871b          	sext.w	a4,a5
    50202294:	47c1                	li	a5,16
    50202296:	0ce7cd63          	blt	a5,a4,50202370 <z_st+0x166>
    5020229a:	fd842783          	lw	a5,-40(s0)
    5020229e:	0007871b          	sext.w	a4,a5
    502022a2:	47a9                	li	a5,10
    502022a4:	0cf70d63          	beq	a4,a5,5020237e <z_st+0x174>
    502022a8:	fd842783          	lw	a5,-40(s0)
    502022ac:	0007871b          	sext.w	a4,a5
    502022b0:	47a9                	li	a5,10
    502022b2:	0ae7cf63          	blt	a5,a4,50202370 <z_st+0x166>
    502022b6:	fd842783          	lw	a5,-40(s0)
    502022ba:	0007871b          	sext.w	a4,a5
    502022be:	4789                	li	a5,2
    502022c0:	00f70a63          	beq	a4,a5,502022d4 <z_st+0xca>
    502022c4:	fd842783          	lw	a5,-40(s0)
    502022c8:	0007871b          	sext.w	a4,a5
    502022cc:	47a1                	li	a5,8
    502022ce:	02f70d63          	beq	a4,a5,50202308 <z_st+0xfe>
    502022d2:	a879                	j	50202370 <z_st+0x166>
    502022d4:	fd043783          	ld	a5,-48(s0)
    502022d8:	00178713          	addi	a4,a5,1
    502022dc:	fce43823          	sd	a4,-48(s0)
    502022e0:	03000713          	li	a4,48
    502022e4:	00e78023          	sb	a4,0(a5)
    502022e8:	fd043783          	ld	a5,-48(s0)
    502022ec:	00178713          	addi	a4,a5,1
    502022f0:	fce43823          	sd	a4,-48(s0)
    502022f4:	06200713          	li	a4,98
    502022f8:	00e78023          	sb	a4,0(a5)
    502022fc:	fcc42783          	lw	a5,-52(s0)
    50202300:	37f9                	addiw	a5,a5,-2
    50202302:	fcf42623          	sw	a5,-52(s0)
    50202306:	a8ad                	j	50202380 <z_st+0x176>
    50202308:	fd043783          	ld	a5,-48(s0)
    5020230c:	00178713          	addi	a4,a5,1
    50202310:	fce43823          	sd	a4,-48(s0)
    50202314:	03000713          	li	a4,48
    50202318:	00e78023          	sb	a4,0(a5)
    5020231c:	fd043783          	ld	a5,-48(s0)
    50202320:	00178713          	addi	a4,a5,1
    50202324:	fce43823          	sd	a4,-48(s0)
    50202328:	06f00713          	li	a4,111
    5020232c:	00e78023          	sb	a4,0(a5)
    50202330:	fcc42783          	lw	a5,-52(s0)
    50202334:	37f9                	addiw	a5,a5,-2
    50202336:	fcf42623          	sw	a5,-52(s0)
    5020233a:	a099                	j	50202380 <z_st+0x176>
    5020233c:	fd043783          	ld	a5,-48(s0)
    50202340:	00178713          	addi	a4,a5,1
    50202344:	fce43823          	sd	a4,-48(s0)
    50202348:	03000713          	li	a4,48
    5020234c:	00e78023          	sb	a4,0(a5)
    50202350:	fd043783          	ld	a5,-48(s0)
    50202354:	00178713          	addi	a4,a5,1
    50202358:	fce43823          	sd	a4,-48(s0)
    5020235c:	07800713          	li	a4,120
    50202360:	00e78023          	sb	a4,0(a5)
    50202364:	fcc42783          	lw	a5,-52(s0)
    50202368:	37f9                	addiw	a5,a5,-2
    5020236a:	fcf42623          	sw	a5,-52(s0)
    5020236e:	a809                	j	50202380 <z_st+0x176>
    50202370:	00000517          	auipc	a0,0x0
    50202374:	39850513          	addi	a0,a0,920 # 50202708 <z_st+0x4fe>
    50202378:	d21ff0ef          	jal	ra,50202098 <bios_putstr>
    5020237c:	a245                	j	5020251c <z_st+0x312>
    5020237e:	0001                	nop
    50202380:	fcc42783          	lw	a5,-52(s0)
    50202384:	870a                	mv	a4,sp
    50202386:	863a                	mv	a2,a4
    50202388:	873e                	mv	a4,a5
    5020238a:	177d                	addi	a4,a4,-1
    5020238c:	fee43423          	sd	a4,-24(s0)
    50202390:	873e                	mv	a4,a5
    50202392:	8f3a                	mv	t5,a4
    50202394:	4f81                	li	t6,0
    50202396:	03df5713          	srli	a4,t5,0x3d
    5020239a:	003f9393          	slli	t2,t6,0x3
    5020239e:	007763b3          	or	t2,a4,t2
    502023a2:	003f1313          	slli	t1,t5,0x3
    502023a6:	873e                	mv	a4,a5
    502023a8:	8e3a                	mv	t3,a4
    502023aa:	4e81                	li	t4,0
    502023ac:	03de5713          	srli	a4,t3,0x3d
    502023b0:	003e9893          	slli	a7,t4,0x3
    502023b4:	011768b3          	or	a7,a4,a7
    502023b8:	003e1813          	slli	a6,t3,0x3
    502023bc:	07bd                	addi	a5,a5,15
    502023be:	8391                	srli	a5,a5,0x4
    502023c0:	0792                	slli	a5,a5,0x4
    502023c2:	40f10133          	sub	sp,sp,a5
    502023c6:	878a                	mv	a5,sp
    502023c8:	00078793          	mv	a5,a5
    502023cc:	fef43023          	sd	a5,-32(s0)
    502023d0:	fcc42783          	lw	a5,-52(s0)
    502023d4:	37fd                	addiw	a5,a5,-1
    502023d6:	fcf42623          	sw	a5,-52(s0)
    502023da:	fe043703          	ld	a4,-32(s0)
    502023de:	fcc42783          	lw	a5,-52(s0)
    502023e2:	97ba                	add	a5,a5,a4
    502023e4:	00078023          	sb	zero,0(a5)
    502023e8:	fd842783          	lw	a5,-40(s0)
    502023ec:	0007871b          	sext.w	a4,a5
    502023f0:	47c1                	li	a5,16
    502023f2:	04f71963          	bne	a4,a5,50202444 <z_st+0x23a>
    502023f6:	fdc42783          	lw	a5,-36(s0)
    502023fa:	873e                	mv	a4,a5
    502023fc:	fd842783          	lw	a5,-40(s0)
    50202400:	02f767bb          	remw	a5,a4,a5
    50202404:	2781                	sext.w	a5,a5
    50202406:	873e                	mv	a4,a5
    50202408:	47a5                	li	a5,9
    5020240a:	02e7dd63          	bge	a5,a4,50202444 <z_st+0x23a>
    5020240e:	fdc42783          	lw	a5,-36(s0)
    50202412:	873e                	mv	a4,a5
    50202414:	fd842783          	lw	a5,-40(s0)
    50202418:	02f767bb          	remw	a5,a4,a5
    5020241c:	2781                	sext.w	a5,a5
    5020241e:	0ff7f793          	zext.b	a5,a5
    50202422:	fcc42703          	lw	a4,-52(s0)
    50202426:	377d                	addiw	a4,a4,-1
    50202428:	fce42623          	sw	a4,-52(s0)
    5020242c:	0577879b          	addiw	a5,a5,87
    50202430:	0ff7f713          	zext.b	a4,a5
    50202434:	fe043683          	ld	a3,-32(s0)
    50202438:	fcc42783          	lw	a5,-52(s0)
    5020243c:	97b6                	add	a5,a5,a3
    5020243e:	00e78023          	sb	a4,0(a5)
    50202442:	a81d                	j	50202478 <z_st+0x26e>
    50202444:	fdc42783          	lw	a5,-36(s0)
    50202448:	873e                	mv	a4,a5
    5020244a:	fd842783          	lw	a5,-40(s0)
    5020244e:	02f767bb          	remw	a5,a4,a5
    50202452:	2781                	sext.w	a5,a5
    50202454:	0ff7f793          	zext.b	a5,a5
    50202458:	fcc42703          	lw	a4,-52(s0)
    5020245c:	377d                	addiw	a4,a4,-1
    5020245e:	fce42623          	sw	a4,-52(s0)
    50202462:	0307879b          	addiw	a5,a5,48
    50202466:	0ff7f713          	zext.b	a4,a5
    5020246a:	fe043683          	ld	a3,-32(s0)
    5020246e:	fcc42783          	lw	a5,-52(s0)
    50202472:	97b6                	add	a5,a5,a3
    50202474:	00e78023          	sb	a4,0(a5)
    50202478:	fdc42783          	lw	a5,-36(s0)
    5020247c:	873e                	mv	a4,a5
    5020247e:	fd842783          	lw	a5,-40(s0)
    50202482:	02f747bb          	divw	a5,a4,a5
    50202486:	fcf42e23          	sw	a5,-36(s0)
    5020248a:	fc842783          	lw	a5,-56(s0)
    5020248e:	37fd                	addiw	a5,a5,-1
    50202490:	fcf42423          	sw	a5,-56(s0)
    50202494:	fdc42783          	lw	a5,-36(s0)
    50202498:	2781                	sext.w	a5,a5
    5020249a:	c785                	beqz	a5,502024c2 <z_st+0x2b8>
    5020249c:	fcc42783          	lw	a5,-52(s0)
    502024a0:	2781                	sext.w	a5,a5
    502024a2:	f3b9                	bnez	a5,502023e8 <z_st+0x1de>
    502024a4:	a839                	j	502024c2 <z_st+0x2b8>
    502024a6:	fcc42783          	lw	a5,-52(s0)
    502024aa:	37fd                	addiw	a5,a5,-1
    502024ac:	fcf42623          	sw	a5,-52(s0)
    502024b0:	fe043703          	ld	a4,-32(s0)
    502024b4:	fcc42783          	lw	a5,-52(s0)
    502024b8:	97ba                	add	a5,a5,a4
    502024ba:	03000713          	li	a4,48
    502024be:	00e78023          	sb	a4,0(a5)
    502024c2:	fc842783          	lw	a5,-56(s0)
    502024c6:	fff7871b          	addiw	a4,a5,-1
    502024ca:	fce42423          	sw	a4,-56(s0)
    502024ce:	02f05a63          	blez	a5,50202502 <z_st+0x2f8>
    502024d2:	fcc42783          	lw	a5,-52(s0)
    502024d6:	2781                	sext.w	a5,a5
    502024d8:	f7f9                	bnez	a5,502024a6 <z_st+0x29c>
    502024da:	a025                	j	50202502 <z_st+0x2f8>
    502024dc:	fcc42703          	lw	a4,-52(s0)
    502024e0:	0017079b          	addiw	a5,a4,1
    502024e4:	fcf42623          	sw	a5,-52(s0)
    502024e8:	fd043783          	ld	a5,-48(s0)
    502024ec:	00178693          	addi	a3,a5,1
    502024f0:	fcd43823          	sd	a3,-48(s0)
    502024f4:	fe043683          	ld	a3,-32(s0)
    502024f8:	9736                	add	a4,a4,a3
    502024fa:	00074703          	lbu	a4,0(a4)
    502024fe:	00e78023          	sb	a4,0(a5)
    50202502:	fe043703          	ld	a4,-32(s0)
    50202506:	fcc42783          	lw	a5,-52(s0)
    5020250a:	97ba                	add	a5,a5,a4
    5020250c:	0007c783          	lbu	a5,0(a5)
    50202510:	f7f1                	bnez	a5,502024dc <z_st+0x2d2>
    50202512:	fd043783          	ld	a5,-48(s0)
    50202516:	00078023          	sb	zero,0(a5)
    5020251a:	8132                	mv	sp,a2
    5020251c:	fc040113          	addi	sp,s0,-64
    50202520:	70e2                	ld	ra,56(sp)
    50202522:	7442                	ld	s0,48(sp)
    50202524:	6121                	addi	sp,sp,64
    50202526:	8082                	ret
